Archive member included because of file (symbol)

/home/liuboyuan/workspace/Hi3518_SDK_V1.0.8.0/mpp/lib/libmpi.a(mpi_region.o)
                              /home/liuboyuan/workspace/Hi3518_SDK_V1.0.8.0/mpp/3516C_src/base/base_mw_overlay.o (HI_MPI_RGN_GetDisplayAttr)
/home/liuboyuan/workspace/Hi3518_SDK_V1.0.8.0/mpp/lib/libmpi.a(mpi_sys.o)
                              /home/liuboyuan/workspace/Hi3518_SDK_V1.0.8.0/mpp/3516C_src/base/base_comm_sys.o (HI_MPI_SYS_SetConf)
/home/liuboyuan/workspace/Hi3518_SDK_V1.0.8.0/mpp/lib/libmpi.a(mpi_vb.o)
                              /home/liuboyuan/workspace/Hi3518_SDK_V1.0.8.0/mpp/3516C_src/base/base_comm_vi.o (HI_MPI_VB_Handle2PoolId)
/home/liuboyuan/workspace/Hi3518_SDK_V1.0.8.0/mpp/lib/libmpi.a(mpi_venc.o)
                              /home/liuboyuan/workspace/Hi3518_SDK_V1.0.8.0/mpp/lib/libmpi.a(mpi_sys.o) (MPI_VENC_Exit)
/home/liuboyuan/workspace/Hi3518_SDK_V1.0.8.0/mpp/lib/libmpi.a(mpi_vi.o)
                              /home/liuboyuan/workspace/Hi3518_SDK_V1.0.8.0/mpp/3516C_src/base/base_comm_vi.o (HI_MPI_VI_SetRotate)
/home/liuboyuan/workspace/Hi3518_SDK_V1.0.8.0/mpp/lib/libmpi.a(mpi_vpss.o)
                              /home/liuboyuan/workspace/Hi3518_SDK_V1.0.8.0/mpp/3516C_src/base/base_comm_vpss.o (HI_MPI_VPSS_SetExtChnAttr)
/home/liuboyuan/workspace/Hi3518_SDK_V1.0.8.0/mpp/lib/libmpi.a(sys_bind.o)
                              /home/liuboyuan/workspace/Hi3518_SDK_V1.0.8.0/mpp/lib/libmpi.a(mpi_sys.o) (SYS_BIND_Exit)
/home/liuboyuan/workspace/Hi3518_SDK_V1.0.8.0/mpp/lib/libmpi.a(mpi_adec.o)
                              /home/liuboyuan/workspace/Hi3518_SDK_V1.0.8.0/mpp/lib/libmpi.a(mpi_sys.o) (MPI_ADEC_Exit)
/home/liuboyuan/workspace/Hi3518_SDK_V1.0.8.0/mpp/lib/libmpi.a(mpi_aenc.o)
                              /home/liuboyuan/workspace/Hi3518_SDK_V1.0.8.0/mpp/lib/libmpi.a(mpi_sys.o) (MPI_AENC_Exit)
/home/liuboyuan/workspace/Hi3518_SDK_V1.0.8.0/mpp/lib/libmpi.a(mpi_ai.o)
                              /home/liuboyuan/workspace/Hi3518_SDK_V1.0.8.0/mpp/lib/libmpi.a(mpi_sys.o) (MPI_AI_Exit)
/home/liuboyuan/workspace/Hi3518_SDK_V1.0.8.0/mpp/lib/libmpi.a(mpi_ao.o)
                              /home/liuboyuan/workspace/Hi3518_SDK_V1.0.8.0/mpp/lib/libmpi.a(mpi_sys.o) (MPI_AO_Exit)
/home/liuboyuan/workspace/Hi3518_SDK_V1.0.8.0/mpp/lib/libmpi.a(audio_comm.o)
                              /home/liuboyuan/workspace/Hi3518_SDK_V1.0.8.0/mpp/lib/libmpi.a(mpi_aenc.o) (audio_check_mem_open)
/home/liuboyuan/workspace/Hi3518_SDK_V1.0.8.0/mpp/lib/libmpi.a(audio_voice_adp.o)
                              /home/liuboyuan/workspace/Hi3518_SDK_V1.0.8.0/mpp/lib/libmpi.a(mpi_adec.o) (HI_MPI_ADEC_VoiceInit)
/home/liuboyuan/workspace/Hi3518_SDK_V1.0.8.0/mpp/lib/libisp.a(mpi_isp.o)
                              /home/liuboyuan/workspace/Hi3518_SDK_V1.0.8.0/mpp/3516C_src/base/base_mw_boardinterface.o (HI_MPI_ISP_GetBlackLevelAttr)
/home/liuboyuan/workspace/Hi3518_SDK_V1.0.8.0/mpp/lib/libisp.a(mpi_isp_entry.o)
                              /home/liuboyuan/workspace/Hi3518_SDK_V1.0.8.0/mpp/3516C_src/base/base_comm_isp.o (HI_MPI_ISP_GetCfg)
/home/liuboyuan/workspace/Hi3518_SDK_V1.0.8.0/mpp/lib/libisp.a(apical_color_management.o)
                              /home/liuboyuan/workspace/Hi3518_SDK_V1.0.8.0/mpp/lib/libisp.a(mpi_isp_entry.o) (color_matrix_kernel_update)
/home/liuboyuan/workspace/Hi3518_SDK_V1.0.8.0/mpp/lib/libisp.a(apical_isp_defaults.o)
                              /home/liuboyuan/workspace/Hi3518_SDK_V1.0.8.0/mpp/lib/libisp.a(mpi_isp_entry.o) (apical_isp_defaults)
/home/liuboyuan/workspace/Hi3518_SDK_V1.0.8.0/mpp/lib/libisp.a(apical_isp_system_control.o)
                              /home/liuboyuan/workspace/Hi3518_SDK_V1.0.8.0/mpp/lib/libisp.a(mpi_isp_entry.o) (apical_isp_sys_ctrl_if_fend_upd)
/home/liuboyuan/workspace/Hi3518_SDK_V1.0.8.0/mpp/lib/libisp.a(apical_noise_reduction.o)
                              /home/liuboyuan/workspace/Hi3518_SDK_V1.0.8.0/mpp/lib/libisp.a(apical_isp_defaults.o) (noise_profile_set)
/home/liuboyuan/workspace/Hi3518_SDK_V1.0.8.0/mpp/lib/libisp.a(apical_sharpening.o)
                              /home/liuboyuan/workspace/Hi3518_SDK_V1.0.8.0/mpp/lib/libisp.a(apical_isp_defaults.o) (sharpening_initialize)
/home/liuboyuan/workspace/Hi3518_SDK_V1.0.8.0/mpp/lib/libisp.a(hi_regwr.o)
                              /home/liuboyuan/workspace/Hi3518_SDK_V1.0.8.0/mpp/lib/libisp.a(mpi_isp_entry.o) (ISP_GetExtRegAddr)
/home/liuboyuan/workspace/Hi3518_SDK_V1.0.8.0/mpp/lib/libisp.a(hisi_isp_debug.o)
                              /home/liuboyuan/workspace/Hi3518_SDK_V1.0.8.0/mpp/lib/libisp.a(mpi_isp_entry.o) (hisi_isp_debug_ctrl_init)
/home/liuboyuan/workspace/Hi3518_SDK_V1.0.8.0/mpp/lib/libisp.a(hisi_isp_proc.o)
                              /home/liuboyuan/workspace/Hi3518_SDK_V1.0.8.0/mpp/lib/libisp.a(mpi_isp_entry.o) (hisi_isp_proc_exit)
/home/liuboyuan/workspace/Hi3518_SDK_V1.0.8.0/mpp/lib/libisp.a(math_utils.o)
                              /home/liuboyuan/workspace/Hi3518_SDK_V1.0.8.0/mpp/lib/libisp.a(apical_noise_reduction.o) (sqrt16)
/home/liuboyuan/workspace/Hi3518_SDK_V1.0.8.0/mpp/lib/libisp.a(apical_auto_wb.o)
                              /home/liuboyuan/workspace/Hi3518_SDK_V1.0.8.0/mpp/lib/libisp.a(apical_isp_defaults.o) (auto_wb_para_set)
/home/liuboyuan/workspace/Hi3518_SDK_V1.0.8.0/mpp/lib/libisp.a(apical_isp.o)
                              /home/liuboyuan/workspace/Hi3518_SDK_V1.0.8.0/mpp/lib/libisp.a(apical_isp_system_control.o) (apical_isp_exposure_ratio_set)
/home/liuboyuan/workspace/Hi3518_SDK_V1.0.8.0/mpp/lib/libisp.a(apical_new_antifog.o)
                              /home/liuboyuan/workspace/Hi3518_SDK_V1.0.8.0/mpp/lib/libisp.a(apical_isp.o) (new_antifog_initialize)
/home/liuboyuan/workspace/Hi3518_SDK_V1.0.8.0/mpp/lib/libisp.a(apical_pixel_calibration.o)
                              /home/liuboyuan/workspace/Hi3518_SDK_V1.0.8.0/mpp/lib/libisp.a(apical_isp.o) (pixel_calibration_initialize)
/home/liuboyuan/workspace/Hi3518_SDK_V1.0.8.0/mpp/lib/libisp.a(apical_pregamma.o)
                              /home/liuboyuan/workspace/Hi3518_SDK_V1.0.8.0/mpp/lib/libisp.a(apical_isp.o) (exposure_gamma_calculate)
/home/liuboyuan/workspace/Hi3518_SDK_V1.0.8.0/mpp/lib/libisp.a(awb_fw.o)
                              /home/liuboyuan/workspace/Hi3518_SDK_V1.0.8.0/mpp/lib/libisp.a(apical_isp.o) (awb_zone_info)
/home/liuboyuan/workspace/Hi3518_SDK_V1.0.8.0/mpp/lib/libisp.a(Apical_antifog.o)
                              /home/liuboyuan/workspace/Hi3518_SDK_V1.0.8.0/mpp/lib/libisp.a(apical_isp.o) (antifog_initialize)
/home/liuboyuan/workspace/Hi3518_SDK_V1.0.8.0/mpp/lib/libisp.a(apical_auto_exposure.o)
                              /home/liuboyuan/workspace/Hi3518_SDK_V1.0.8.0/mpp/lib/libisp.a(apical_isp.o) (auto_exposure_increment_calculate)
/home/liuboyuan/workspace/Hi3518_SDK_V1.0.8.0/mpp/lib/libisp.a(apical_exposure_cmos.o)
                              /home/liuboyuan/workspace/Hi3518_SDK_V1.0.8.0/mpp/lib/libisp.a(apical_isp.o) (exposure_cmos_initialize)
/home/liuboyuan/workspace/Hi3518_SDK_V1.0.8.0/mpp/lib/libisp.a(apical_gamma_init.o)
                              /home/liuboyuan/workspace/Hi3518_SDK_V1.0.8.0/mpp/lib/libisp.a(apical_isp.o) (gamma_initialize)
/home/liuboyuan/workspace/Hi3518_SDK_V1.0.8.0/mpp/lib/libisp.a(apical_iridix_control.o)
                              /home/liuboyuan/workspace/Hi3518_SDK_V1.0.8.0/mpp/lib/libisp.a(apical_isp.o) (iridix_control_initialize)
/home/liuboyuan/workspace/Hi3518_SDK_V1.0.8.0/mpp/lib/libisp.a(apical_iris_control.o)
                              /home/liuboyuan/workspace/Hi3518_SDK_V1.0.8.0/mpp/lib/libisp.a(apical_isp.o) (iris_calibration_initialize)
/home/liuboyuan/workspace/Hi3518_SDK_V1.0.8.0/mpp/lib/libsns_imx122.a(imx122_cmos.o)
                              /home/liuboyuan/workspace/Hi3518_SDK_V1.0.8.0/mpp/3516C_src/base/base_comm_isp.o (sensor_mode_set)
/home/liuboyuan/workspace/Hi3518_SDK_V1.0.8.0/mpp/lib/libsns_imx122.a(imx122_sensor_ctl.o)
                              /home/liuboyuan/workspace/Hi3518_SDK_V1.0.8.0/mpp/lib/libsns_imx122.a(imx122_cmos.o) (sensor_write_register)
/home/liuboyuan/workspace/Hi3518_SDK_V1.0.8.0/mpp/lib/libVoiceEngine.a(voice.o)
                              /home/liuboyuan/workspace/Hi3518_SDK_V1.0.8.0/mpp/lib/libmpi.a(audio_voice_adp.o) (HI_VOICE_DecodeFrame)
/home/liuboyuan/workspace/Hi3518_SDK_V1.0.8.0/mpp/lib/libVoiceEngine.a(adpcm.o)
                              /home/liuboyuan/workspace/Hi3518_SDK_V1.0.8.0/mpp/lib/libVoiceEngine.a(voice.o) (ADPCM_state_reset)
/home/liuboyuan/workspace/Hi3518_SDK_V1.0.8.0/mpp/lib/libVoiceEngine.a(encode72616k.o)
                              /home/liuboyuan/workspace/Hi3518_SDK_V1.0.8.0/mpp/lib/libVoiceEngine.a(voice.o) (Encode72616k)
/home/liuboyuan/workspace/Hi3518_SDK_V1.0.8.0/mpp/lib/libVoiceEngine.a(g711func.o)
                              /home/liuboyuan/workspace/Hi3518_SDK_V1.0.8.0/mpp/lib/libVoiceEngine.a(voice.o) (G711_encode)
/home/liuboyuan/workspace/Hi3518_SDK_V1.0.8.0/mpp/lib/libVoiceEngine.a(g726_optimize.o)
                              /home/liuboyuan/workspace/Hi3518_SDK_V1.0.8.0/mpp/lib/libVoiceEngine.a(voice.o) (G726_state_reset)
/home/liuboyuan/workspace/Hi3518_SDK_V1.0.8.0/mpp/lib/libVoiceEngine.a(g726_sub.o)
                              /home/liuboyuan/workspace/Hi3518_SDK_V1.0.8.0/mpp/lib/libVoiceEngine.a(g726_optimize.o) (adpcm_log)
/home/liuboyuan/workspace/Hi3518_SDK_V1.0.8.0/mpp/lib/libVoiceEngine.a(encode726.o)
                              /home/liuboyuan/workspace/Hi3518_SDK_V1.0.8.0/mpp/lib/libVoiceEngine.a(g726_optimize.o) (Encode726)
/home/liuboyuan/workspace/Hi3518_SDK_V1.0.8.0/mpp/lib/libaec.a(echowrap.o)
                              /home/liuboyuan/workspace/Hi3518_SDK_V1.0.8.0/mpp/lib/libmpi.a(mpi_aenc.o) (AEC_DeInit)
/home/liuboyuan/workspace/Hi3518_SDK_V1.0.8.0/mpp/lib/libaec.a(mdf.o)
                              /home/liuboyuan/workspace/Hi3518_SDK_V1.0.8.0/mpp/lib/libaec.a(echowrap.o) (Aec_speex_echo_state_init)
/home/liuboyuan/workspace/Hi3518_SDK_V1.0.8.0/mpp/lib/libaec.a(preprocess.o)
                              /home/liuboyuan/workspace/Hi3518_SDK_V1.0.8.0/mpp/lib/libaec.a(echowrap.o) (Aec_speex_preprocess_state_init)
/home/liuboyuan/workspace/Hi3518_SDK_V1.0.8.0/mpp/lib/libaec.a(aec_rom.o)
                              /home/liuboyuan/workspace/Hi3518_SDK_V1.0.8.0/mpp/lib/libaec.a(mdf.o) (Aec_MIN_LEAK)
/home/liuboyuan/workspace/Hi3518_SDK_V1.0.8.0/mpp/lib/libaec.a(basic_gcc.o)
                              /home/liuboyuan/workspace/Hi3518_SDK_V1.0.8.0/mpp/lib/libaec.a(mdf.o) (Aec_DIV32_16)
/home/liuboyuan/workspace/Hi3518_SDK_V1.0.8.0/mpp/lib/libaec.a(basic_op.o)
                              /home/liuboyuan/workspace/Hi3518_SDK_V1.0.8.0/mpp/lib/libaec.a(mdf.o) (Aec_ABS16)
/home/liuboyuan/workspace/Hi3518_SDK_V1.0.8.0/mpp/lib/libaec.a(fftwrap.o)
                              /home/liuboyuan/workspace/Hi3518_SDK_V1.0.8.0/mpp/lib/libaec.a(mdf.o) (Aec_spx_ifft)
/home/liuboyuan/workspace/Hi3518_SDK_V1.0.8.0/mpp/lib/libaec.a(filterbank.o)
                              /home/liuboyuan/workspace/Hi3518_SDK_V1.0.8.0/mpp/lib/libaec.a(preprocess.o) (Aec_filterbank_compute_bank32)
/home/liuboyuan/workspace/Hi3518_SDK_V1.0.8.0/mpp/lib/libaec.a(kiss_fftr.o)
                              /home/liuboyuan/workspace/Hi3518_SDK_V1.0.8.0/mpp/lib/libaec.a(fftwrap.o) (Aec_kiss_fftri2)
/home/liuboyuan/workspace/Hi3518_SDK_V1.0.8.0/mpp/lib/libaec.a(math_approx.o)
                              /home/liuboyuan/workspace/Hi3518_SDK_V1.0.8.0/mpp/lib/libaec.a(mdf.o) (Aec_spx_ilog2)
/home/liuboyuan/workspace/Hi3518_SDK_V1.0.8.0/mpp/lib/libaec.a(kiss_fft.o)
                              /home/liuboyuan/workspace/Hi3518_SDK_V1.0.8.0/mpp/lib/libaec.a(kiss_fftr.o) (Aec_kiss_fft)
/home/liuboyuan/workspace/Hi3518_SDK_V1.0.8.0/mpp/lib/libaec.a(kf_bfly4_fft.o)
                              /home/liuboyuan/workspace/Hi3518_SDK_V1.0.8.0/mpp/lib/libaec.a(kiss_fft.o) (Aec_kf_bfly4_ifft)
/home/liuboyuan/workspace/Hi3518_SDK_V1.0.8.0/mpp/lib/libaec.a(kf_bfly5_fft.o)
                              /home/liuboyuan/workspace/Hi3518_SDK_V1.0.8.0/mpp/lib/libaec.a(kiss_fft.o) (Aec_kf_bfly5_fft)
/home/liuboyuan/workspace/Hi3518_SDK_V1.0.8.0/mpp/lib/libresampler.a(resampler_wrap.o)
                              /home/liuboyuan/workspace/Hi3518_SDK_V1.0.8.0/mpp/lib/libmpi.a(mpi_ai.o) (ResamplerCreate)
/home/liuboyuan/workspace/Hi3518_SDK_V1.0.8.0/mpp/lib/libresampler.a(resampler.o)
                              /home/liuboyuan/workspace/Hi3518_SDK_V1.0.8.0/mpp/lib/libresampler.a(resampler_wrap.o) (HI_Resampler_Create)
/home/liuboyuan/workspace/Hi3518_SDK_V1.0.8.0/mpp/lib/libresampler.a(resample_v2.o)
                              /home/liuboyuan/workspace/Hi3518_SDK_V1.0.8.0/mpp/lib/libresampler.a(resampler.o) (RES_NEW_ResamplerCreate)
/home/liuboyuan/workspace/Hi3518_SDK_V1.0.8.0/mpp/lib/libresampler.a(linear_src.o)
                              /home/liuboyuan/workspace/Hi3518_SDK_V1.0.8.0/mpp/lib/libresampler.a(resample_v2.o) (RES_LinearSRC_Create)
/home/liuboyuan/workspace/Hi3518_SDK_V1.0.8.0/mpp/lib/libresampler.a(resampler2X.o)
                              /home/liuboyuan/workspace/Hi3518_SDK_V1.0.8.0/mpp/lib/libresampler.a(resampler.o) (RES_Resampler2X_Free)
/home/liuboyuan/workspace/Hi3518_SDK_V1.0.8.0/mpp/lib/libresampler.a(resample_rom.o)
                              /home/liuboyuan/workspace/Hi3518_SDK_V1.0.8.0/mpp/lib/libresampler.a(resample_v2.o) (RES_res_48_48_nextphasetab)
/home/liuboyuan/workspace/Hi3518_SDK_V1.0.8.0/mpp/lib/libanr.a(anr_wrap.o)
                              /home/liuboyuan/workspace/Hi3518_SDK_V1.0.8.0/mpp/lib/libmpi.a(mpi_ai.o) (ANR_DeInit)
/home/liuboyuan/workspace/Hi3518_SDK_V1.0.8.0/mpp/lib/libanr.a(anr_preprocess.o)
                              /home/liuboyuan/workspace/Hi3518_SDK_V1.0.8.0/mpp/lib/libanr.a(anr_wrap.o) (speex_preprocess_state_close)
/home/liuboyuan/workspace/Hi3518_SDK_V1.0.8.0/mpp/lib/libanr.a(anr_basic_gcc.o)
                              /home/liuboyuan/workspace/Hi3518_SDK_V1.0.8.0/mpp/lib/libanr.a(anr_preprocess.o) (anr_DIV32_16)
/home/liuboyuan/workspace/Hi3518_SDK_V1.0.8.0/mpp/lib/libanr.a(anr_basic_op.o)
                              /home/liuboyuan/workspace/Hi3518_SDK_V1.0.8.0/mpp/lib/libanr.a(anr_preprocess.o) (ABS16)
/home/liuboyuan/workspace/Hi3518_SDK_V1.0.8.0/mpp/lib/libanr.a(anr_fftwrap.o)
                              /home/liuboyuan/workspace/Hi3518_SDK_V1.0.8.0/mpp/lib/libanr.a(anr_preprocess.o) (anr_spx_ifft)
/home/liuboyuan/workspace/Hi3518_SDK_V1.0.8.0/mpp/lib/libanr.a(anr_filterbank.o)
                              /home/liuboyuan/workspace/Hi3518_SDK_V1.0.8.0/mpp/lib/libanr.a(anr_preprocess.o) (anr_filterbank_compute_bank32)
/home/liuboyuan/workspace/Hi3518_SDK_V1.0.8.0/mpp/lib/libanr.a(anr_kiss_fftr.o)
                              /home/liuboyuan/workspace/Hi3518_SDK_V1.0.8.0/mpp/lib/libanr.a(anr_fftwrap.o) (anr_kiss_fftri2)
/home/liuboyuan/workspace/Hi3518_SDK_V1.0.8.0/mpp/lib/libanr.a(anr_math_approx.o)
                              /home/liuboyuan/workspace/Hi3518_SDK_V1.0.8.0/mpp/lib/libanr.a(anr_preprocess.o) (anr_spx_ilog2)
/home/liuboyuan/workspace/Hi3518_SDK_V1.0.8.0/mpp/lib/libanr.a(anr_kiss_fft.o)
                              /home/liuboyuan/workspace/Hi3518_SDK_V1.0.8.0/mpp/lib/libanr.a(anr_kiss_fftr.o) (anr_kiss_fft)
/home/liuboyuan/workspace/Hi3518_SDK_V1.0.8.0/mpp/lib/libanr.a(anr_kf_bfly4_fft.o)
                              /home/liuboyuan/workspace/Hi3518_SDK_V1.0.8.0/mpp/lib/libanr.a(anr_kiss_fft.o) (anr_kf_bfly4_ifft)
/home/liuboyuan/workspace/Hi3518_SDK_V1.0.8.0/mpp/lib/libanr.a(anr_kf_bfly5_fft.o)
                              /home/liuboyuan/workspace/Hi3518_SDK_V1.0.8.0/mpp/lib/libanr.a(anr_kiss_fft.o) (anr_kf_bfly5_fft)

Allocating common symbols
Common symbol       size              file

awb_greenCenBg      0x2               /home/liuboyuan/workspace/Hi3518_SDK_V1.0.8.0/mpp/lib/libisp.a(awb_fw.o)
sLedTimer           0x18              /home/liuboyuan/workspace/Hi3518_SDK_V1.0.8.0/mpp/3516C_src/base/base_api_ledctl.o
ascii_table_16_24_001a
                    0x60              /home/liuboyuan/workspace/Hi3518_SDK_V1.0.8.0/mpp/3516C_src/base/base_mw_osd.o
gsOverlayAttr       0x25c             /home/liuboyuan/workspace/Hi3518_SDK_V1.0.8.0/mpp/3516C_src/base/base_AVMsgManagement.o
awb_greenLumaLowThresh
                    0x2               /home/liuboyuan/workspace/Hi3518_SDK_V1.0.8.0/mpp/lib/libisp.a(awb_fw.o)
ascii_table_16_24_0011
                    0x60              /home/liuboyuan/workspace/Hi3518_SDK_V1.0.8.0/mpp/3516C_src/base/base_mw_osd.o
gsGuiClient         0x260             ipc_main.o
awb_zone_info       0x3c00            /home/liuboyuan/workspace/Hi3518_SDK_V1.0.8.0/mpp/lib/libisp.a(awb_fw.o)
ascii_table_16_24_001e
                    0x60              /home/liuboyuan/workspace/Hi3518_SDK_V1.0.8.0/mpp/3516C_src/base/base_mw_osd.o
awb_greenLumaHighThresh
                    0x2               /home/liuboyuan/workspace/Hi3518_SDK_V1.0.8.0/mpp/lib/libisp.a(awb_fw.o)
gsWifiInfo          0x108             /home/liuboyuan/workspace/Hi3518_SDK_V1.0.8.0/mpp/3516C_src/base/base_AVMsgManagement.o
gsVencAttr          0x60              /home/liuboyuan/workspace/Hi3518_SDK_V1.0.8.0/mpp/3516C_src/base/base_AVMsgManagement.o
ascii_table_16_24_0008
                    0x60              /home/liuboyuan/workspace/Hi3518_SDK_V1.0.8.0/mpp/3516C_src/base/base_mw_osd.o
stCfCtlRetUart      0x100             ipc_main.o
ascii_table_16_24_0004
                    0x60              /home/liuboyuan/workspace/Hi3518_SDK_V1.0.8.0/mpp/3516C_src/base/base_mw_osd.o
gst_coms_isp_default
                    0x84              /home/liuboyuan/workspace/Hi3518_SDK_V1.0.8.0/mpp/lib/libisp.a(mpi_isp_entry.o)
glCommuBuf          0x28              /home/liuboyuan/workspace/Hi3518_SDK_V1.0.8.0/mpp/3516C_src/base/base_AVMsgManagement.o
stCfCtlRetTerminal  0x100             ipc_main.o
ascii_table_16_24_0019
                    0x60              /home/liuboyuan/workspace/Hi3518_SDK_V1.0.8.0/mpp/3516C_src/base/base_mw_osd.o
ascii_table_16_24_0015
                    0x60              /home/liuboyuan/workspace/Hi3518_SDK_V1.0.8.0/mpp/3516C_src/base/base_mw_osd.o
gsPipeCommand       0x14              ipc_main.o
gsVpss              0x50              /home/liuboyuan/workspace/Hi3518_SDK_V1.0.8.0/mpp/3516C_src/base/base_AVMsgManagement.o
gsRegCovAttr        0x60              /home/liuboyuan/workspace/Hi3518_SDK_V1.0.8.0/mpp/3516C_src/base/base_AVMsgManagement.o
lTimerId            0xc               /home/liuboyuan/workspace/Hi3518_SDK_V1.0.8.0/mpp/3516C_src/base/base_AVMsgManagement.o
gsSnap              0x30              /home/liuboyuan/workspace/Hi3518_SDK_V1.0.8.0/mpp/3516C_src/base/base_mw_snap.o
ascii_table_16_24_000c
                    0x60              /home/liuboyuan/workspace/Hi3518_SDK_V1.0.8.0/mpp/3516C_src/base/base_mw_osd.o
glPoolId            0x4               /home/liuboyuan/workspace/Hi3518_SDK_V1.0.8.0/mpp/3516C_src/base/base_AVMsgManagement.o
eCOMM_MW_StrPoolHeader
                    0x4               /home/liuboyuan/workspace/Hi3518_SDK_V1.0.8.0/mpp/3516C_src/common/comm_mw_strpool.o
gsFileAttr          0x6c              /home/liuboyuan/workspace/Hi3518_SDK_V1.0.8.0/mpp/3516C_src/base/base_AVMsgManagement.o
awb_greenDistCrossCoef
                    0x2               /home/liuboyuan/workspace/Hi3518_SDK_V1.0.8.0/mpp/lib/libisp.a(awb_fw.o)
ascii_table_16_24_0010
                    0x60              /home/liuboyuan/workspace/Hi3518_SDK_V1.0.8.0/mpp/3516C_src/base/base_mw_osd.o
g_stLock            0x18              /home/liuboyuan/workspace/Hi3518_SDK_V1.0.8.0/mpp/lib/libisp.a(mpi_isp_entry.o)
geModeFlag          0x4               /home/liuboyuan/workspace/Hi3518_SDK_V1.0.8.0/mpp/3516C_src/base/base_mw_boardinterface.o
ascii_table_16_24_001d
                    0x60              /home/liuboyuan/workspace/Hi3518_SDK_V1.0.8.0/mpp/3516C_src/base/base_mw_osd.o
gsDIRStat           0x118             /home/liuboyuan/workspace/Hi3518_SDK_V1.0.8.0/mpp/3516C_src/base/base_AVMsgManagement.o
sFileSystem_Mutex   0x18              /home/liuboyuan/workspace/Hi3518_SDK_V1.0.8.0/mpp/3516C_src/common/comm_fileSystem.o
ascii_table_16_24_0007
                    0x60              /home/liuboyuan/workspace/Hi3518_SDK_V1.0.8.0/mpp/3516C_src/base/base_mw_osd.o
ascii_table_16_24_0003
                    0x60              /home/liuboyuan/workspace/Hi3518_SDK_V1.0.8.0/mpp/3516C_src/base/base_mw_osd.o
sGetCommand         0x24              ipc_main.o
g_s32HRTimer        0x4               /home/liuboyuan/workspace/Hi3518_SDK_V1.0.8.0/mpp/lib/libmpi.a(mpi_sys.o)
stCfBaseRet         0x100             ipc_main.o
awb_greenDistRgCoef
                    0x2               /home/liuboyuan/workspace/Hi3518_SDK_V1.0.8.0/mpp/lib/libisp.a(awb_fw.o)
gIPList             0x20              /home/liuboyuan/workspace/Hi3518_SDK_V1.0.8.0/mpp/3516C_src/base/base_AVMsgManagement.o
ascii_table_16_24_0018
                    0x60              /home/liuboyuan/workspace/Hi3518_SDK_V1.0.8.0/mpp/3516C_src/base/base_mw_osd.o
gsSystemAttr        0xa4              /home/liuboyuan/workspace/Hi3518_SDK_V1.0.8.0/mpp/3516C_src/base/base_AVMsgManagement.o
ascii_table_16_24_0014
                    0x60              /home/liuboyuan/workspace/Hi3518_SDK_V1.0.8.0/mpp/3516C_src/base/base_mw_osd.o
lTimerFlag          0x4               /home/liuboyuan/workspace/Hi3518_SDK_V1.0.8.0/mpp/3516C_src/base/base_AVMsgManagement.o
gsIrCutInfo         0x20              /home/liuboyuan/workspace/Hi3518_SDK_V1.0.8.0/mpp/3516C_src/base/base_AVMsgManagement.o
g_stCmosIspShadingTable
                    0x31a             /home/liuboyuan/workspace/Hi3518_SDK_V1.0.8.0/mpp/lib/libisp.a(mpi_isp_entry.o)
sSubCardInfo        0x168             /home/liuboyuan/workspace/Hi3518_SDK_V1.0.8.0/mpp/3516C_src/base/base_mw_subcard.o
cFileSnapPosition   0x80              /home/liuboyuan/workspace/Hi3518_SDK_V1.0.8.0/mpp/3516C_src/base/base_mw_filesort.o
lCurrentChangeParamsArray
                    0x80              /home/liuboyuan/workspace/Hi3518_SDK_V1.0.8.0/mpp/3516C_src/base/base_AVMsgManagement.o
awb_greenDistBgCoef
                    0x2               /home/liuboyuan/workspace/Hi3518_SDK_V1.0.8.0/mpp/lib/libisp.a(awb_fw.o)
gsTerminalClient    0x38              ipc_main.o
glHifbDevFd         0x4               /home/liuboyuan/workspace/Hi3518_SDK_V1.0.8.0/mpp/3516C_src/base/base_AVMsgManagement.o
gsVi                0xc8              /home/liuboyuan/workspace/Hi3518_SDK_V1.0.8.0/mpp/3516C_src/base/base_AVMsgManagement.o
ascii_table_16_24_000f
                    0x60              /home/liuboyuan/workspace/Hi3518_SDK_V1.0.8.0/mpp/3516C_src/base/base_mw_osd.o
ascii_table_16_24_000b
                    0x60              /home/liuboyuan/workspace/Hi3518_SDK_V1.0.8.0/mpp/3516C_src/base/base_mw_osd.o
gsRegCov            0x54              /home/liuboyuan/workspace/Hi3518_SDK_V1.0.8.0/mpp/3516C_src/base/base_AVMsgManagement.o
awb_greenDistThresh
                    0x2               /home/liuboyuan/workspace/Hi3518_SDK_V1.0.8.0/mpp/lib/libisp.a(awb_fw.o)
sCmdList            0x40              ipc_main.o
sFeedbackList       0x40              ipc_main.o
gstSnsExpFuncs      0x58              /home/liuboyuan/workspace/Hi3518_SDK_V1.0.8.0/mpp/lib/libisp.a(mpi_isp_entry.o)
ascii_table_16_24_001c
                    0x60              /home/liuboyuan/workspace/Hi3518_SDK_V1.0.8.0/mpp/3516C_src/base/base_mw_osd.o
sReqList            0x40              ipc_main.o
ascii_table_16_24_0006
                    0x60              /home/liuboyuan/workspace/Hi3518_SDK_V1.0.8.0/mpp/3516C_src/base/base_mw_osd.o
sUartReq            0x1c              ipc_main.o
gsLedCtlInfo        0x18              /home/liuboyuan/workspace/Hi3518_SDK_V1.0.8.0/mpp/3516C_src/base/base_api_ledctl.o
gsShareMem          0x64              ipc_main.o
ascii_table_16_24_0002
                    0x60              /home/liuboyuan/workspace/Hi3518_SDK_V1.0.8.0/mpp/3516C_src/base/base_mw_osd.o
gsTime              0x18              /home/liuboyuan/workspace/Hi3518_SDK_V1.0.8.0/mpp/3516C_src/base/base_mw_time.o
ascii_table_16_24_0017
                    0x60              /home/liuboyuan/workspace/Hi3518_SDK_V1.0.8.0/mpp/3516C_src/base/base_mw_osd.o
g_stProcMem         0xc               /home/liuboyuan/workspace/Hi3518_SDK_V1.0.8.0/mpp/lib/libisp.a(mpi_isp_entry.o)
g_as32ViDev         0x4               /home/liuboyuan/workspace/Hi3518_SDK_V1.0.8.0/mpp/3516C_src/base/base_comm_vi.o
awb_greenCenRg      0x2               /home/liuboyuan/workspace/Hi3518_SDK_V1.0.8.0/mpp/lib/libisp.a(awb_fw.o)
g_as32SubChn        0x44              /home/liuboyuan/workspace/Hi3518_SDK_V1.0.8.0/mpp/3516C_src/base/base_comm_vi.o
sFileSortInfo       0x20              /home/liuboyuan/workspace/Hi3518_SDK_V1.0.8.0/mpp/3516C_src/base/base_venc_dataconsume.o
gsMuxInterface      0x28              /home/liuboyuan/workspace/Hi3518_SDK_V1.0.8.0/mpp/3516C_src/base/base_util_mux_imple_mpegts.o
gsRtpAttr           0xa0              /home/liuboyuan/workspace/Hi3518_SDK_V1.0.8.0/mpp/3516C_src/base/base_AVMsgManagement.o
gsParas             0x1c00            ipc_main.o
gsParaRtp           0xa0              /home/liuboyuan/workspace/Hi3518_SDK_V1.0.8.0/mpp/3516C_src/base/base_AVMsgManagement.o
ascii_table_16_24_0013
                    0x60              /home/liuboyuan/workspace/Hi3518_SDK_V1.0.8.0/mpp/3516C_src/base/base_mw_osd.o
cFileVideoPosition  0x80              /home/liuboyuan/workspace/Hi3518_SDK_V1.0.8.0/mpp/3516C_src/base/base_mw_filesort.o
gsHighThreadArgv    0x2c              /home/liuboyuan/workspace/Hi3518_SDK_V1.0.8.0/mpp/3516C_src/base/base_AVMsgManagement.o
ascii_table_16_24_000e
                    0x60              /home/liuboyuan/workspace/Hi3518_SDK_V1.0.8.0/mpp/3516C_src/base/base_mw_osd.o
ascii_table_16_24_000a
                    0x60              /home/liuboyuan/workspace/Hi3518_SDK_V1.0.8.0/mpp/3516C_src/base/base_mw_osd.o
cFileSubcardPosition
                    0x80              /home/liuboyuan/workspace/Hi3518_SDK_V1.0.8.0/mpp/3516C_src/base/base_mw_filesort.o
gs_ViDevBnd_curr    0x4               /home/liuboyuan/workspace/Hi3518_SDK_V1.0.8.0/mpp/3516C_src/base/base_venc_control.o
g_stCmosIspDemosaic
                    0x12              /home/liuboyuan/workspace/Hi3518_SDK_V1.0.8.0/mpp/lib/libisp.a(mpi_isp_entry.o)
gsVenc              0x30              /home/liuboyuan/workspace/Hi3518_SDK_V1.0.8.0/mpp/3516C_src/base/base_AVMsgManagement.o
gsDataConsume       0x124             /home/liuboyuan/workspace/Hi3518_SDK_V1.0.8.0/mpp/3516C_src/base/base_venc_control.o
g_stCmosIspNoiseTable
                    0x100             /home/liuboyuan/workspace/Hi3518_SDK_V1.0.8.0/mpp/lib/libisp.a(mpi_isp_entry.o)
ascii_table_16_24_001f
                    0x60              /home/liuboyuan/workspace/Hi3518_SDK_V1.0.8.0/mpp/3516C_src/base/base_mw_osd.o
ascii_table_16_24_001b
                    0x60              /home/liuboyuan/workspace/Hi3518_SDK_V1.0.8.0/mpp/3516C_src/base/base_mw_osd.o
stCfCtlRetGui       0x100             ipc_main.o
glEndFlag           0x4               ipc_main.o
ascii_table_16_24_0005
                    0x60              /home/liuboyuan/workspace/Hi3518_SDK_V1.0.8.0/mpp/3516C_src/base/base_mw_osd.o
plCurrentChangeParamsArray
                    0x4               /home/liuboyuan/workspace/Hi3518_SDK_V1.0.8.0/mpp/3516C_src/base/base_AVMsgManagement.o
ascii_table_16_24_0009
                    0x60              /home/liuboyuan/workspace/Hi3518_SDK_V1.0.8.0/mpp/3516C_src/base/base_mw_osd.o
ascii_table_16_24_0001
                    0x60              /home/liuboyuan/workspace/Hi3518_SDK_V1.0.8.0/mpp/3516C_src/base/base_mw_osd.o
g_as32MaxChn        0x44              /home/liuboyuan/workspace/Hi3518_SDK_V1.0.8.0/mpp/3516C_src/base/base_comm_vi.o
gs_ViChnBnd_curr    0x4               /home/liuboyuan/workspace/Hi3518_SDK_V1.0.8.0/mpp/3516C_src/base/base_venc_control.o
ascii_table_16_24_0016
                    0x60              /home/liuboyuan/workspace/Hi3518_SDK_V1.0.8.0/mpp/3516C_src/base/base_mw_osd.o
awb_p               0x4               /home/liuboyuan/workspace/Hi3518_SDK_V1.0.8.0/mpp/lib/libisp.a(awb_fw.o)
stCfAudioCtrl       0x100             /home/liuboyuan/workspace/Hi3518_SDK_V1.0.8.0/mpp/3516C_src/base/base_AVMsgManagement.o
gsSDStat            0x98              /home/liuboyuan/workspace/Hi3518_SDK_V1.0.8.0/mpp/3516C_src/base/base_AVMsgManagement.o
g_stCmosIspAgcTable
                    0x38              /home/liuboyuan/workspace/Hi3518_SDK_V1.0.8.0/mpp/lib/libisp.a(mpi_isp_entry.o)
ascii_table_16_24_0012
                    0x60              /home/liuboyuan/workspace/Hi3518_SDK_V1.0.8.0/mpp/3516C_src/base/base_mw_osd.o
g_stIspDebug        0x2134            /home/liuboyuan/workspace/Hi3518_SDK_V1.0.8.0/mpp/lib/libisp.a(hisi_isp_debug.o)
greenInfo           0xc               /home/liuboyuan/workspace/Hi3518_SDK_V1.0.8.0/mpp/lib/libisp.a(awb_fw.o)
gsPipeFeedback      0x14              ipc_main.o
ascii_table_16_24_0000
                    0x60              /home/liuboyuan/workspace/Hi3518_SDK_V1.0.8.0/mpp/3516C_src/base/base_mw_osd.o
stCfVencCtrlCh      0x300             /home/liuboyuan/workspace/Hi3518_SDK_V1.0.8.0/mpp/3516C_src/base/base_AVMsgManagement.o
ascii_table_16_24_000d
                    0x60              /home/liuboyuan/workspace/Hi3518_SDK_V1.0.8.0/mpp/3516C_src/base/base_mw_osd.o
g_stCmosIspGammaTable
                    0x202             /home/liuboyuan/workspace/Hi3518_SDK_V1.0.8.0/mpp/lib/libisp.a(mpi_isp_entry.o)
sCTRL_Btn_Req       0xc               ipc_main.o

Discarded input sections

 .note.GNU-stack
                0x00000000        0x0 /opt/hisi-linux-nptl/arm-hisiv100-linux/bin/../target/usr/lib/crt1.o
 .note.GNU-stack
                0x00000000        0x0 /opt/hisi-linux-nptl/arm-hisiv100-linux/bin/../target/usr/lib/crti.o
 .note.GNU-stack
                0x00000000        0x0 /opt/hisi-linux-nptl/arm-hisiv100-linux/bin/../lib/gcc/arm-hisiv100-linux-uclibcgnueabi/4.4.1/crtbegin.o
 .note.GNU-stack
                0x00000000        0x0 ipc_main.o
 .group         0x00000000       0x10 /home/liuboyuan/workspace/Hi3518_SDK_V1.0.8.0/mpp/3516C_src/base/base_rtp.o
 .group         0x00000000       0x10 /home/liuboyuan/workspace/Hi3518_SDK_V1.0.8.0/mpp/3516C_src/base/base_rtp.o
 .group         0x00000000       0x10 /home/liuboyuan/workspace/Hi3518_SDK_V1.0.8.0/mpp/3516C_src/base/base_rtp.o
 .group         0x00000000       0x10 /home/liuboyuan/workspace/Hi3518_SDK_V1.0.8.0/mpp/3516C_src/base/base_rtp.o
 .group         0x00000000       0x10 /home/liuboyuan/workspace/Hi3518_SDK_V1.0.8.0/mpp/3516C_src/base/base_rtp.o
 .group         0x00000000       0x10 /home/liuboyuan/workspace/Hi3518_SDK_V1.0.8.0/mpp/3516C_src/base/base_rtp.o
 .group         0x00000000        0x8 /home/liuboyuan/workspace/Hi3518_SDK_V1.0.8.0/mpp/3516C_src/base/base_rtp.o
 .group         0x00000000        0x8 /home/liuboyuan/workspace/Hi3518_SDK_V1.0.8.0/mpp/3516C_src/base/base_rtp.o
 .group         0x00000000        0x8 /home/liuboyuan/workspace/Hi3518_SDK_V1.0.8.0/mpp/3516C_src/base/base_rtp.o
 .group         0x00000000        0x8 /home/liuboyuan/workspace/Hi3518_SDK_V1.0.8.0/mpp/3516C_src/base/base_rtp.o
 .group         0x00000000        0x8 /home/liuboyuan/workspace/Hi3518_SDK_V1.0.8.0/mpp/3516C_src/base/base_rtp.o
 .group         0x00000000        0x8 /home/liuboyuan/workspace/Hi3518_SDK_V1.0.8.0/mpp/3516C_src/base/base_rtp.o
 .group         0x00000000        0x8 /home/liuboyuan/workspace/Hi3518_SDK_V1.0.8.0/mpp/3516C_src/base/base_rtp.o
 .group         0x00000000        0x8 /home/liuboyuan/workspace/Hi3518_SDK_V1.0.8.0/mpp/3516C_src/base/base_rtp.o
 .group         0x00000000        0x8 /home/liuboyuan/workspace/Hi3518_SDK_V1.0.8.0/mpp/3516C_src/base/base_rtp.o
 .note.GNU-stack
                0x00000000        0x0 /home/liuboyuan/workspace/Hi3518_SDK_V1.0.8.0/mpp/3516C_src/base/base_rtp.o
 .note.GNU-stack
                0x00000000        0x0 /home/liuboyuan/workspace/Hi3518_SDK_V1.0.8.0/mpp/3516C_src/base/base_api_ledctl.o
 .note.GNU-stack
                0x00000000        0x0 /home/liuboyuan/workspace/Hi3518_SDK_V1.0.8.0/mpp/3516C_src/base/base_AVMsgManagement.o
 .note.GNU-stack
                0x00000000        0x0 /home/liuboyuan/workspace/Hi3518_SDK_V1.0.8.0/mpp/3516C_src/base/base_comm_isp.o
 .note.GNU-stack
                0x00000000        0x0 /home/liuboyuan/workspace/Hi3518_SDK_V1.0.8.0/mpp/3516C_src/base/base_comm_sys.o
 .note.GNU-stack
                0x00000000        0x0 /home/liuboyuan/workspace/Hi3518_SDK_V1.0.8.0/mpp/3516C_src/base/base_comm_venc.o
 .note.GNU-stack
                0x00000000        0x0 /home/liuboyuan/workspace/Hi3518_SDK_V1.0.8.0/mpp/3516C_src/base/base_comm_vi.o
 .note.GNU-stack
                0x00000000        0x0 /home/liuboyuan/workspace/Hi3518_SDK_V1.0.8.0/mpp/3516C_src/base/base_comm_vpss.o
 .note.GNU-stack
                0x00000000        0x0 /home/liuboyuan/workspace/Hi3518_SDK_V1.0.8.0/mpp/3516C_src/base/base_ircut_ctl.o
 .note.GNU-stack
                0x00000000        0x0 /home/liuboyuan/workspace/Hi3518_SDK_V1.0.8.0/mpp/3516C_src/base/base_loadbmp.o
 .note.GNU-stack
                0x00000000        0x0 /home/liuboyuan/workspace/Hi3518_SDK_V1.0.8.0/mpp/3516C_src/base/base_mw_boardinterface.o
 .note.GNU-stack
                0x00000000        0x0 /home/liuboyuan/workspace/Hi3518_SDK_V1.0.8.0/mpp/3516C_src/base/base_mw_filesort.o
 .note.GNU-stack
                0x00000000        0x0 /home/liuboyuan/workspace/Hi3518_SDK_V1.0.8.0/mpp/3516C_src/base/base_mw_modechange.o
 .note.GNU-stack
                0x00000000        0x0 /home/liuboyuan/workspace/Hi3518_SDK_V1.0.8.0/mpp/3516C_src/base/base_mw_osd.o
 .note.GNU-stack
                0x00000000        0x0 /home/liuboyuan/workspace/Hi3518_SDK_V1.0.8.0/mpp/3516C_src/base/base_mw_overlay.o
 .note.GNU-stack
                0x00000000        0x0 /home/liuboyuan/workspace/Hi3518_SDK_V1.0.8.0/mpp/3516C_src/base/base_mw_region.o
 .note.GNU-stack
                0x00000000        0x0 /home/liuboyuan/workspace/Hi3518_SDK_V1.0.8.0/mpp/3516C_src/base/base_mw_sd.o
 .note.GNU-stack
                0x00000000        0x0 /home/liuboyuan/workspace/Hi3518_SDK_V1.0.8.0/mpp/3516C_src/base/base_mw_snap.o
 .note.GNU-stack
                0x00000000        0x0 /home/liuboyuan/workspace/Hi3518_SDK_V1.0.8.0/mpp/3516C_src/base/base_mw_subcard.o
 .note.GNU-stack
                0x00000000        0x0 /home/liuboyuan/workspace/Hi3518_SDK_V1.0.8.0/mpp/3516C_src/base/base_mw_subcard_rec.o
 .note.GNU-stack
                0x00000000        0x0 /home/liuboyuan/workspace/Hi3518_SDK_V1.0.8.0/mpp/3516C_src/base/base_mw_time.o
 .note.GNU-stack
                0x00000000        0x0 /home/liuboyuan/workspace/Hi3518_SDK_V1.0.8.0/mpp/3516C_src/base/base_mw_wifi.o
 .note.GNU-stack
                0x00000000        0x0 /home/liuboyuan/workspace/Hi3518_SDK_V1.0.8.0/mpp/3516C_src/base/base_util_mux_imple_mpegts.o
 .note.GNU-stack
                0x00000000        0x0 /home/liuboyuan/workspace/Hi3518_SDK_V1.0.8.0/mpp/3516C_src/base/base_venc_control.o
 .note.GNU-stack
                0x00000000        0x0 /home/liuboyuan/workspace/Hi3518_SDK_V1.0.8.0/mpp/3516C_src/base/base_venc_dataconsume.o
 .note.GNU-stack
                0x00000000        0x0 /home/liuboyuan/workspace/Hi3518_SDK_V1.0.8.0/mpp/3516C_src/base/base_venc_handle.o
 .note.GNU-stack
                0x00000000        0x0 /home/liuboyuan/workspace/Hi3518_SDK_V1.0.8.0/mpp/3516C_src/ctrl/ctrl_api_button.o
 .note.GNU-stack
                0x00000000        0x0 /home/liuboyuan/workspace/Hi3518_SDK_V1.0.8.0/mpp/3516C_src/ctrl/ctrl_cmdPreHanle.o
 .note.GNU-stack
                0x00000000        0x0 /home/liuboyuan/workspace/Hi3518_SDK_V1.0.8.0/mpp/3516C_src/ctrl/ctrl_guiReq.o
 .note.GNU-stack
                0x00000000        0x0 /home/liuboyuan/workspace/Hi3518_SDK_V1.0.8.0/mpp/3516C_src/ctrl/ctrl_interactiveCtl.o
 .note.GNU-stack
                0x00000000        0x0 /home/liuboyuan/workspace/Hi3518_SDK_V1.0.8.0/mpp/3516C_src/ctrl/ctrl_reqResponse.o
 .note.GNU-stack
                0x00000000        0x0 /home/liuboyuan/workspace/Hi3518_SDK_V1.0.8.0/mpp/3516C_src/ctrl/ctrl_terminalReq.o
 .note.GNU-stack
                0x00000000        0x0 /home/liuboyuan/workspace/Hi3518_SDK_V1.0.8.0/mpp/3516C_src/ctrl/ctrl_uart_getCommand.o
 .note.GNU-stack
                0x00000000        0x0 /home/liuboyuan/workspace/Hi3518_SDK_V1.0.8.0/mpp/3516C_src/ctrl/ctrl_uartReq.o
 .note.GNU-stack
                0x00000000        0x0 /home/liuboyuan/workspace/Hi3518_SDK_V1.0.8.0/mpp/3516C_src/ctrl/ctrl_uartReq_parseCommand.o
 .note.GNU-stack
                0x00000000        0x0 /home/liuboyuan/workspace/Hi3518_SDK_V1.0.8.0/mpp/3516C_src/ctrl/CTRL_UARTREQ_PARSECOMMAND_Common.o
 .note.GNU-stack
                0x00000000        0x0 /home/liuboyuan/workspace/Hi3518_SDK_V1.0.8.0/mpp/3516C_src/ctrl/CTRL_UARTREQ_PARSECOMMAND_EMPTY.o
 .note.GNU-stack
                0x00000000        0x0 /home/liuboyuan/workspace/Hi3518_SDK_V1.0.8.0/mpp/3516C_src/ctrl/CTRL_UARTREQ_PARSECOMMAND_INTER.o
 .note.GNU-stack
                0x00000000        0x0 /home/liuboyuan/workspace/Hi3518_SDK_V1.0.8.0/mpp/3516C_src/ctrl/CTRL_UARTREQ_PARSECOMMAND_LED.o
 .note.GNU-stack
                0x00000000        0x0 /home/liuboyuan/workspace/Hi3518_SDK_V1.0.8.0/mpp/3516C_src/ctrl/CTRL_UARTREQ_PARSECOMMAND_QUIT.o
 .note.GNU-stack
                0x00000000        0x0 /home/liuboyuan/workspace/Hi3518_SDK_V1.0.8.0/mpp/3516C_src/ctrl/CTRL_UARTREQ_PARSECOMMAND_SNAP.o
 .note.GNU-stack
                0x00000000        0x0 /home/liuboyuan/workspace/Hi3518_SDK_V1.0.8.0/mpp/3516C_src/ctrl/CTRL_UARTREQ_PARSECOMMAND_TIME.o
 .note.GNU-stack
                0x00000000        0x0 /home/liuboyuan/workspace/Hi3518_SDK_V1.0.8.0/mpp/3516C_src/ctrl/CTRL_UARTREQ_PARSECOMMAND_WIFI.o
 .note.GNU-stack
                0x00000000        0x0 /home/liuboyuan/workspace/Hi3518_SDK_V1.0.8.0/mpp/3516C_src/ctrl/ctrl_uartReq_saveReq.o
 .note.GNU-stack
                0x00000000        0x0 /home/liuboyuan/workspace/Hi3518_SDK_V1.0.8.0/mpp/3516C_src/common/comm_command.o
 .note.GNU-stack
                0x00000000        0x0 /home/liuboyuan/workspace/Hi3518_SDK_V1.0.8.0/mpp/3516C_src/common/comm_conditionFlag.o
 .note.GNU-stack
                0x00000000        0x0 /home/liuboyuan/workspace/Hi3518_SDK_V1.0.8.0/mpp/3516C_src/common/comm_dd_adc.o
 .note.GNU-stack
                0x00000000        0x0 /home/liuboyuan/workspace/Hi3518_SDK_V1.0.8.0/mpp/3516C_src/common/comm_dd_button.o
 .note.GNU-stack
                0x00000000        0x0 /home/liuboyuan/workspace/Hi3518_SDK_V1.0.8.0/mpp/3516C_src/common/comm_dd_ircut.o
 .note.GNU-stack
                0x00000000        0x0 /home/liuboyuan/workspace/Hi3518_SDK_V1.0.8.0/mpp/3516C_src/common/comm_dd_uart.o
 .note.GNU-stack
                0x00000000        0x0 /home/liuboyuan/workspace/Hi3518_SDK_V1.0.8.0/mpp/3516C_src/common/comm_debug.o
 .note.GNU-stack
                0x00000000        0x0 /home/liuboyuan/workspace/Hi3518_SDK_V1.0.8.0/mpp/3516C_src/common/comm_fileSort.o
 .note.GNU-stack
                0x00000000        0x0 /home/liuboyuan/workspace/Hi3518_SDK_V1.0.8.0/mpp/3516C_src/common/comm_fileSystem.o
 .note.GNU-stack
                0x00000000        0x0 /home/liuboyuan/workspace/Hi3518_SDK_V1.0.8.0/mpp/3516C_src/common/comm_iplist.o
 .note.GNU-stack
                0x00000000        0x0 /home/liuboyuan/workspace/Hi3518_SDK_V1.0.8.0/mpp/3516C_src/common/comm_list.o
 .note.GNU-stack
                0x00000000        0x0 /home/liuboyuan/workspace/Hi3518_SDK_V1.0.8.0/mpp/3516C_src/common/comm_mw_led.o
 .note.GNU-stack
                0x00000000        0x0 /home/liuboyuan/workspace/Hi3518_SDK_V1.0.8.0/mpp/3516C_src/common/comm_mw_strpool.o
 .note.GNU-stack
                0x00000000        0x0 /home/liuboyuan/workspace/Hi3518_SDK_V1.0.8.0/mpp/3516C_src/common/comm_mw_time.o
 .note.GNU-stack
                0x00000000        0x0 /home/liuboyuan/workspace/Hi3518_SDK_V1.0.8.0/mpp/3516C_src/common/comm_mw_vfile.o
 .note.GNU-stack
                0x00000000        0x0 /home/liuboyuan/workspace/Hi3518_SDK_V1.0.8.0/mpp/3516C_src/common/comm_net.o
 .note.GNU-stack
                0x00000000        0x0 /home/liuboyuan/workspace/Hi3518_SDK_V1.0.8.0/mpp/3516C_src/common/comm_parameters.o
 .note.GNU-stack
                0x00000000        0x0 /home/liuboyuan/workspace/Hi3518_SDK_V1.0.8.0/mpp/3516C_src/common/comm_pipe.o
 .note.GNU-stack
                0x00000000        0x0 /home/liuboyuan/workspace/Hi3518_SDK_V1.0.8.0/mpp/3516C_src/common/comm_pool.o
 .note.GNU-stack
                0x00000000        0x0 /home/liuboyuan/workspace/Hi3518_SDK_V1.0.8.0/mpp/3516C_src/common/comm_pool_payload.o
 .note.GNU-stack
                0x00000000        0x0 /home/liuboyuan/workspace/Hi3518_SDK_V1.0.8.0/mpp/3516C_src/common/comm_queue.o
 .note.GNU-stack
                0x00000000        0x0 /home/liuboyuan/workspace/Hi3518_SDK_V1.0.8.0/mpp/3516C_src/common/comm_sharemem.o
 .note.GNU-stack
                0x00000000        0x0 /home/liuboyuan/workspace/Hi3518_SDK_V1.0.8.0/mpp/3516C_src/common/comm_spaceSafer.o
 .note.GNU-stack
                0x00000000        0x0 /home/liuboyuan/workspace/Hi3518_SDK_V1.0.8.0/mpp/3516C_src/common/comm_stream.o
 .note.GNU-stack
                0x00000000        0x0 /home/liuboyuan/workspace/Hi3518_SDK_V1.0.8.0/mpp/3516C_src/common/comm_string.o
 .note.GNU-stack
                0x00000000        0x0 /home/liuboyuan/workspace/Hi3518_SDK_V1.0.8.0/mpp/3516C_src/common/comm_timer.o
 .note.GNU-stack
                0x00000000        0x0 /home/liuboyuan/workspace/Hi3518_SDK_V1.0.8.0/mpp/3516C_src/common/comm_util.o
 .note.GNU-stack
                0x00000000        0x0 /home/liuboyuan/workspace/Hi3518_SDK_V1.0.8.0/mpp/lib/libmpi.a(mpi_region.o)
 .note.GNU-stack
                0x00000000        0x0 /home/liuboyuan/workspace/Hi3518_SDK_V1.0.8.0/mpp/lib/libmpi.a(mpi_sys.o)
 .note.GNU-stack
                0x00000000        0x0 /home/liuboyuan/workspace/Hi3518_SDK_V1.0.8.0/mpp/lib/libmpi.a(mpi_vb.o)
 .note.GNU-stack
                0x00000000        0x0 /home/liuboyuan/workspace/Hi3518_SDK_V1.0.8.0/mpp/lib/libmpi.a(mpi_venc.o)
 .note.GNU-stack
                0x00000000        0x0 /home/liuboyuan/workspace/Hi3518_SDK_V1.0.8.0/mpp/lib/libmpi.a(mpi_vi.o)
 .note.GNU-stack
                0x00000000        0x0 /home/liuboyuan/workspace/Hi3518_SDK_V1.0.8.0/mpp/lib/libmpi.a(mpi_vpss.o)
 .note.GNU-stack
                0x00000000        0x0 /home/liuboyuan/workspace/Hi3518_SDK_V1.0.8.0/mpp/lib/libmpi.a(sys_bind.o)
 .note.GNU-stack
                0x00000000        0x0 /home/liuboyuan/workspace/Hi3518_SDK_V1.0.8.0/mpp/lib/libmpi.a(mpi_adec.o)
 .note.GNU-stack
                0x00000000        0x0 /home/liuboyuan/workspace/Hi3518_SDK_V1.0.8.0/mpp/lib/libmpi.a(mpi_aenc.o)
 .note.GNU-stack
                0x00000000        0x0 /home/liuboyuan/workspace/Hi3518_SDK_V1.0.8.0/mpp/lib/libmpi.a(mpi_ai.o)
 .note.GNU-stack
                0x00000000        0x0 /home/liuboyuan/workspace/Hi3518_SDK_V1.0.8.0/mpp/lib/libmpi.a(mpi_ao.o)
 .note.GNU-stack
                0x00000000        0x0 /home/liuboyuan/workspace/Hi3518_SDK_V1.0.8.0/mpp/lib/libmpi.a(audio_comm.o)
 .note.GNU-stack
                0x00000000        0x0 /home/liuboyuan/workspace/Hi3518_SDK_V1.0.8.0/mpp/lib/libmpi.a(audio_voice_adp.o)
 .note.GNU-stack
                0x00000000        0x0 /home/liuboyuan/workspace/Hi3518_SDK_V1.0.8.0/mpp/lib/libisp.a(mpi_isp.o)
 .note.GNU-stack
                0x00000000        0x0 /home/liuboyuan/workspace/Hi3518_SDK_V1.0.8.0/mpp/lib/libisp.a(mpi_isp_entry.o)
 .note.GNU-stack
                0x00000000        0x0 /home/liuboyuan/workspace/Hi3518_SDK_V1.0.8.0/mpp/lib/libisp.a(apical_color_management.o)
 .note.GNU-stack
                0x00000000        0x0 /home/liuboyuan/workspace/Hi3518_SDK_V1.0.8.0/mpp/lib/libisp.a(apical_isp_defaults.o)
 .note.GNU-stack
                0x00000000        0x0 /home/liuboyuan/workspace/Hi3518_SDK_V1.0.8.0/mpp/lib/libisp.a(apical_isp_system_control.o)
 .note.GNU-stack
                0x00000000        0x0 /home/liuboyuan/workspace/Hi3518_SDK_V1.0.8.0/mpp/lib/libisp.a(apical_noise_reduction.o)
 .note.GNU-stack
                0x00000000        0x0 /home/liuboyuan/workspace/Hi3518_SDK_V1.0.8.0/mpp/lib/libisp.a(apical_sharpening.o)
 .note.GNU-stack
                0x00000000        0x0 /home/liuboyuan/workspace/Hi3518_SDK_V1.0.8.0/mpp/lib/libisp.a(hi_regwr.o)
 .note.GNU-stack
                0x00000000        0x0 /home/liuboyuan/workspace/Hi3518_SDK_V1.0.8.0/mpp/lib/libisp.a(hisi_isp_debug.o)
 .note.GNU-stack
                0x00000000        0x0 /home/liuboyuan/workspace/Hi3518_SDK_V1.0.8.0/mpp/lib/libisp.a(hisi_isp_proc.o)
 .note.GNU-stack
                0x00000000        0x0 /home/liuboyuan/workspace/Hi3518_SDK_V1.0.8.0/mpp/lib/libisp.a(math_utils.o)
 .note.GNU-stack
                0x00000000        0x0 /home/liuboyuan/workspace/Hi3518_SDK_V1.0.8.0/mpp/lib/libisp.a(apical_auto_wb.o)
 .note.GNU-stack
                0x00000000        0x0 /home/liuboyuan/workspace/Hi3518_SDK_V1.0.8.0/mpp/lib/libisp.a(apical_isp.o)
 .note.GNU-stack
                0x00000000        0x0 /home/liuboyuan/workspace/Hi3518_SDK_V1.0.8.0/mpp/lib/libisp.a(apical_new_antifog.o)
 .note.GNU-stack
                0x00000000        0x0 /home/liuboyuan/workspace/Hi3518_SDK_V1.0.8.0/mpp/lib/libisp.a(apical_pixel_calibration.o)
 .note.GNU-stack
                0x00000000        0x0 /home/liuboyuan/workspace/Hi3518_SDK_V1.0.8.0/mpp/lib/libisp.a(apical_pregamma.o)
 .note.GNU-stack
                0x00000000        0x0 /home/liuboyuan/workspace/Hi3518_SDK_V1.0.8.0/mpp/lib/libisp.a(awb_fw.o)
 .note.GNU-stack
                0x00000000        0x0 /home/liuboyuan/workspace/Hi3518_SDK_V1.0.8.0/mpp/lib/libisp.a(Apical_antifog.o)
 .note.GNU-stack
                0x00000000        0x0 /home/liuboyuan/workspace/Hi3518_SDK_V1.0.8.0/mpp/lib/libisp.a(apical_auto_exposure.o)
 .note.GNU-stack
                0x00000000        0x0 /home/liuboyuan/workspace/Hi3518_SDK_V1.0.8.0/mpp/lib/libisp.a(apical_exposure_cmos.o)
 .note.GNU-stack
                0x00000000        0x0 /home/liuboyuan/workspace/Hi3518_SDK_V1.0.8.0/mpp/lib/libisp.a(apical_gamma_init.o)
 .note.GNU-stack
                0x00000000        0x0 /home/liuboyuan/workspace/Hi3518_SDK_V1.0.8.0/mpp/lib/libisp.a(apical_iridix_control.o)
 .note.GNU-stack
                0x00000000        0x0 /home/liuboyuan/workspace/Hi3518_SDK_V1.0.8.0/mpp/lib/libisp.a(apical_iris_control.o)
 .note.GNU-stack
                0x00000000        0x0 /home/liuboyuan/workspace/Hi3518_SDK_V1.0.8.0/mpp/lib/libsns_imx122.a(imx122_cmos.o)
 .note.GNU-stack
                0x00000000        0x0 /home/liuboyuan/workspace/Hi3518_SDK_V1.0.8.0/mpp/lib/libsns_imx122.a(imx122_sensor_ctl.o)
 .note.GNU-stack
                0x00000000        0x0 /home/liuboyuan/workspace/Hi3518_SDK_V1.0.8.0/mpp/lib/libVoiceEngine.a(voice.o)
 .note.GNU-stack
                0x00000000        0x0 /home/liuboyuan/workspace/Hi3518_SDK_V1.0.8.0/mpp/lib/libVoiceEngine.a(adpcm.o)
 .note.GNU-stack
                0x00000000        0x0 /home/liuboyuan/workspace/Hi3518_SDK_V1.0.8.0/mpp/lib/libVoiceEngine.a(g711func.o)
 .note.GNU-stack
                0x00000000        0x0 /home/liuboyuan/workspace/Hi3518_SDK_V1.0.8.0/mpp/lib/libVoiceEngine.a(g726_optimize.o)
 .note.GNU-stack
                0x00000000        0x0 /home/liuboyuan/workspace/Hi3518_SDK_V1.0.8.0/mpp/lib/libVoiceEngine.a(g726_sub.o)
 .note.GNU-stack
                0x00000000        0x0 /home/liuboyuan/workspace/Hi3518_SDK_V1.0.8.0/mpp/lib/libaec.a(echowrap.o)
 .note.GNU-stack
                0x00000000        0x0 /home/liuboyuan/workspace/Hi3518_SDK_V1.0.8.0/mpp/lib/libaec.a(mdf.o)
 .note.GNU-stack
                0x00000000        0x0 /home/liuboyuan/workspace/Hi3518_SDK_V1.0.8.0/mpp/lib/libaec.a(preprocess.o)
 .note.GNU-stack
                0x00000000        0x0 /home/liuboyuan/workspace/Hi3518_SDK_V1.0.8.0/mpp/lib/libaec.a(aec_rom.o)
 .note.GNU-stack
                0x00000000        0x0 /home/liuboyuan/workspace/Hi3518_SDK_V1.0.8.0/mpp/lib/libaec.a(basic_op.o)
 .note.GNU-stack
                0x00000000        0x0 /home/liuboyuan/workspace/Hi3518_SDK_V1.0.8.0/mpp/lib/libaec.a(fftwrap.o)
 .note.GNU-stack
                0x00000000        0x0 /home/liuboyuan/workspace/Hi3518_SDK_V1.0.8.0/mpp/lib/libaec.a(filterbank.o)
 .note.GNU-stack
                0x00000000        0x0 /home/liuboyuan/workspace/Hi3518_SDK_V1.0.8.0/mpp/lib/libaec.a(kiss_fftr.o)
 .note.GNU-stack
                0x00000000        0x0 /home/liuboyuan/workspace/Hi3518_SDK_V1.0.8.0/mpp/lib/libaec.a(math_approx.o)
 .note.GNU-stack
                0x00000000        0x0 /home/liuboyuan/workspace/Hi3518_SDK_V1.0.8.0/mpp/lib/libaec.a(kiss_fft.o)
 .note.GNU-stack
                0x00000000        0x0 /home/liuboyuan/workspace/Hi3518_SDK_V1.0.8.0/mpp/lib/libresampler.a(resampler_wrap.o)
 .note.GNU-stack
                0x00000000        0x0 /home/liuboyuan/workspace/Hi3518_SDK_V1.0.8.0/mpp/lib/libresampler.a(resampler.o)
 .note.GNU-stack
                0x00000000        0x0 /home/liuboyuan/workspace/Hi3518_SDK_V1.0.8.0/mpp/lib/libresampler.a(resample_v2.o)
 .note.GNU-stack
                0x00000000        0x0 /home/liuboyuan/workspace/Hi3518_SDK_V1.0.8.0/mpp/lib/libresampler.a(linear_src.o)
 .note.GNU-stack
                0x00000000        0x0 /home/liuboyuan/workspace/Hi3518_SDK_V1.0.8.0/mpp/lib/libresampler.a(resampler2X.o)
 .note.GNU-stack
                0x00000000        0x0 /home/liuboyuan/workspace/Hi3518_SDK_V1.0.8.0/mpp/lib/libresampler.a(resample_rom.o)
 .note.GNU-stack
                0x00000000        0x0 /home/liuboyuan/workspace/Hi3518_SDK_V1.0.8.0/mpp/lib/libanr.a(anr_wrap.o)
 .note.GNU-stack
                0x00000000        0x0 /home/liuboyuan/workspace/Hi3518_SDK_V1.0.8.0/mpp/lib/libanr.a(anr_preprocess.o)
 .note.GNU-stack
                0x00000000        0x0 /home/liuboyuan/workspace/Hi3518_SDK_V1.0.8.0/mpp/lib/libanr.a(anr_basic_op.o)
 .note.GNU-stack
                0x00000000        0x0 /home/liuboyuan/workspace/Hi3518_SDK_V1.0.8.0/mpp/lib/libanr.a(anr_fftwrap.o)
 .note.GNU-stack
                0x00000000        0x0 /home/liuboyuan/workspace/Hi3518_SDK_V1.0.8.0/mpp/lib/libanr.a(anr_filterbank.o)
 .note.GNU-stack
                0x00000000        0x0 /home/liuboyuan/workspace/Hi3518_SDK_V1.0.8.0/mpp/lib/libanr.a(anr_kiss_fftr.o)
 .note.GNU-stack
                0x00000000        0x0 /home/liuboyuan/workspace/Hi3518_SDK_V1.0.8.0/mpp/lib/libanr.a(anr_math_approx.o)
 .note.GNU-stack
                0x00000000        0x0 /home/liuboyuan/workspace/Hi3518_SDK_V1.0.8.0/mpp/lib/libanr.a(anr_kiss_fft.o)
 .note.GNU-stack
                0x00000000        0x0 /opt/hisi-linux-nptl/arm-hisiv100-linux/bin/../lib/gcc/arm-hisiv100-linux-uclibcgnueabi/4.4.1/crtend.o
 .note.GNU-stack
                0x00000000        0x0 /opt/hisi-linux-nptl/arm-hisiv100-linux/bin/../target/usr/lib/crtn.o

Memory Configuration

Name             Origin             Length             Attributes
*default*        0x00000000         0xffffffff

Linker script and memory map

LOAD /opt/hisi-linux-nptl/arm-hisiv100-linux/bin/../target/usr/lib/crt1.o
LOAD /opt/hisi-linux-nptl/arm-hisiv100-linux/bin/../target/usr/lib/crti.o
LOAD /opt/hisi-linux-nptl/arm-hisiv100-linux/bin/../lib/gcc/arm-hisiv100-linux-uclibcgnueabi/4.4.1/crtbegin.o
LOAD /opt/hisi-linux-nptl/arm-hisiv100-linux/bin/../target/usr/lib/libpthread.so
START GROUP
LOAD /opt/hisi-linux-nptl/arm-hisiv100-linux/bin/../target/lib/libpthread.so.0
LOAD /opt/hisi-linux-nptl/arm-hisiv100-linux/bin/../target/usr/lib/libpthread_nonshared.a
END GROUP
LOAD ipc_main.o
LOAD /home/liuboyuan/workspace/Hi3518_SDK_V1.0.8.0/mpp/3516C_src/base/base_rtp.o
LOAD /home/liuboyuan/workspace/Hi3518_SDK_V1.0.8.0/mpp/3516C_src/base/base_api_ledctl.o
LOAD /home/liuboyuan/workspace/Hi3518_SDK_V1.0.8.0/mpp/3516C_src/base/base_AVMsgManagement.o
LOAD /home/liuboyuan/workspace/Hi3518_SDK_V1.0.8.0/mpp/3516C_src/base/base_comm_isp.o
LOAD /home/liuboyuan/workspace/Hi3518_SDK_V1.0.8.0/mpp/3516C_src/base/base_comm_sys.o
LOAD /home/liuboyuan/workspace/Hi3518_SDK_V1.0.8.0/mpp/3516C_src/base/base_comm_venc.o
LOAD /home/liuboyuan/workspace/Hi3518_SDK_V1.0.8.0/mpp/3516C_src/base/base_comm_vi.o
LOAD /home/liuboyuan/workspace/Hi3518_SDK_V1.0.8.0/mpp/3516C_src/base/base_comm_vpss.o
LOAD /home/liuboyuan/workspace/Hi3518_SDK_V1.0.8.0/mpp/3516C_src/base/base_ircut_ctl.o
LOAD /home/liuboyuan/workspace/Hi3518_SDK_V1.0.8.0/mpp/3516C_src/base/base_loadbmp.o
LOAD /home/liuboyuan/workspace/Hi3518_SDK_V1.0.8.0/mpp/3516C_src/base/base_mw_boardinterface.o
LOAD /home/liuboyuan/workspace/Hi3518_SDK_V1.0.8.0/mpp/3516C_src/base/base_mw_filesort.o
LOAD /home/liuboyuan/workspace/Hi3518_SDK_V1.0.8.0/mpp/3516C_src/base/base_mw_modechange.o
LOAD /home/liuboyuan/workspace/Hi3518_SDK_V1.0.8.0/mpp/3516C_src/base/base_mw_osd.o
LOAD /home/liuboyuan/workspace/Hi3518_SDK_V1.0.8.0/mpp/3516C_src/base/base_mw_overlay.o
LOAD /home/liuboyuan/workspace/Hi3518_SDK_V1.0.8.0/mpp/3516C_src/base/base_mw_region.o
LOAD /home/liuboyuan/workspace/Hi3518_SDK_V1.0.8.0/mpp/3516C_src/base/base_mw_sd.o
LOAD /home/liuboyuan/workspace/Hi3518_SDK_V1.0.8.0/mpp/3516C_src/base/base_mw_snap.o
LOAD /home/liuboyuan/workspace/Hi3518_SDK_V1.0.8.0/mpp/3516C_src/base/base_mw_subcard.o
LOAD /home/liuboyuan/workspace/Hi3518_SDK_V1.0.8.0/mpp/3516C_src/base/base_mw_subcard_rec.o
LOAD /home/liuboyuan/workspace/Hi3518_SDK_V1.0.8.0/mpp/3516C_src/base/base_mw_time.o
LOAD /home/liuboyuan/workspace/Hi3518_SDK_V1.0.8.0/mpp/3516C_src/base/base_mw_wifi.o
LOAD /home/liuboyuan/workspace/Hi3518_SDK_V1.0.8.0/mpp/3516C_src/base/base_util_mux_imple_mpegts.o
LOAD /home/liuboyuan/workspace/Hi3518_SDK_V1.0.8.0/mpp/3516C_src/base/base_venc_control.o
LOAD /home/liuboyuan/workspace/Hi3518_SDK_V1.0.8.0/mpp/3516C_src/base/base_venc_dataconsume.o
LOAD /home/liuboyuan/workspace/Hi3518_SDK_V1.0.8.0/mpp/3516C_src/base/base_venc_handle.o
LOAD /home/liuboyuan/workspace/Hi3518_SDK_V1.0.8.0/mpp/3516C_src/ctrl/ctrl_api_button.o
LOAD /home/liuboyuan/workspace/Hi3518_SDK_V1.0.8.0/mpp/3516C_src/ctrl/ctrl_cmdPreHanle.o
LOAD /home/liuboyuan/workspace/Hi3518_SDK_V1.0.8.0/mpp/3516C_src/ctrl/ctrl_guiReq.o
LOAD /home/liuboyuan/workspace/Hi3518_SDK_V1.0.8.0/mpp/3516C_src/ctrl/ctrl_interactiveCtl.o
LOAD /home/liuboyuan/workspace/Hi3518_SDK_V1.0.8.0/mpp/3516C_src/ctrl/ctrl_reqResponse.o
LOAD /home/liuboyuan/workspace/Hi3518_SDK_V1.0.8.0/mpp/3516C_src/ctrl/ctrl_terminalReq.o
LOAD /home/liuboyuan/workspace/Hi3518_SDK_V1.0.8.0/mpp/3516C_src/ctrl/ctrl_uart_getCommand.o
LOAD /home/liuboyuan/workspace/Hi3518_SDK_V1.0.8.0/mpp/3516C_src/ctrl/ctrl_uartReq.o
LOAD /home/liuboyuan/workspace/Hi3518_SDK_V1.0.8.0/mpp/3516C_src/ctrl/ctrl_uartReq_parseCommand.o
LOAD /home/liuboyuan/workspace/Hi3518_SDK_V1.0.8.0/mpp/3516C_src/ctrl/CTRL_UARTREQ_PARSECOMMAND_Common.o
LOAD /home/liuboyuan/workspace/Hi3518_SDK_V1.0.8.0/mpp/3516C_src/ctrl/CTRL_UARTREQ_PARSECOMMAND_EMPTY.o
LOAD /home/liuboyuan/workspace/Hi3518_SDK_V1.0.8.0/mpp/3516C_src/ctrl/CTRL_UARTREQ_PARSECOMMAND_INTER.o
LOAD /home/liuboyuan/workspace/Hi3518_SDK_V1.0.8.0/mpp/3516C_src/ctrl/CTRL_UARTREQ_PARSECOMMAND_LED.o
LOAD /home/liuboyuan/workspace/Hi3518_SDK_V1.0.8.0/mpp/3516C_src/ctrl/CTRL_UARTREQ_PARSECOMMAND_QUIT.o
LOAD /home/liuboyuan/workspace/Hi3518_SDK_V1.0.8.0/mpp/3516C_src/ctrl/CTRL_UARTREQ_PARSECOMMAND_SNAP.o
LOAD /home/liuboyuan/workspace/Hi3518_SDK_V1.0.8.0/mpp/3516C_src/ctrl/CTRL_UARTREQ_PARSECOMMAND_TIME.o
LOAD /home/liuboyuan/workspace/Hi3518_SDK_V1.0.8.0/mpp/3516C_src/ctrl/CTRL_UARTREQ_PARSECOMMAND_WIFI.o
LOAD /home/liuboyuan/workspace/Hi3518_SDK_V1.0.8.0/mpp/3516C_src/ctrl/ctrl_uartReq_saveReq.o
LOAD /home/liuboyuan/workspace/Hi3518_SDK_V1.0.8.0/mpp/3516C_src/common/comm_command.o
LOAD /home/liuboyuan/workspace/Hi3518_SDK_V1.0.8.0/mpp/3516C_src/common/comm_conditionFlag.o
LOAD /home/liuboyuan/workspace/Hi3518_SDK_V1.0.8.0/mpp/3516C_src/common/comm_dd_adc.o
LOAD /home/liuboyuan/workspace/Hi3518_SDK_V1.0.8.0/mpp/3516C_src/common/comm_dd_button.o
LOAD /home/liuboyuan/workspace/Hi3518_SDK_V1.0.8.0/mpp/3516C_src/common/comm_dd_ircut.o
LOAD /home/liuboyuan/workspace/Hi3518_SDK_V1.0.8.0/mpp/3516C_src/common/comm_dd_uart.o
LOAD /home/liuboyuan/workspace/Hi3518_SDK_V1.0.8.0/mpp/3516C_src/common/comm_debug.o
LOAD /home/liuboyuan/workspace/Hi3518_SDK_V1.0.8.0/mpp/3516C_src/common/comm_fileSort.o
LOAD /home/liuboyuan/workspace/Hi3518_SDK_V1.0.8.0/mpp/3516C_src/common/comm_fileSystem.o
LOAD /home/liuboyuan/workspace/Hi3518_SDK_V1.0.8.0/mpp/3516C_src/common/comm_iplist.o
LOAD /home/liuboyuan/workspace/Hi3518_SDK_V1.0.8.0/mpp/3516C_src/common/comm_list.o
LOAD /home/liuboyuan/workspace/Hi3518_SDK_V1.0.8.0/mpp/3516C_src/common/comm_mw_led.o
LOAD /home/liuboyuan/workspace/Hi3518_SDK_V1.0.8.0/mpp/3516C_src/common/comm_mw_strpool.o
LOAD /home/liuboyuan/workspace/Hi3518_SDK_V1.0.8.0/mpp/3516C_src/common/comm_mw_time.o
LOAD /home/liuboyuan/workspace/Hi3518_SDK_V1.0.8.0/mpp/3516C_src/common/comm_mw_vfile.o
LOAD /home/liuboyuan/workspace/Hi3518_SDK_V1.0.8.0/mpp/3516C_src/common/comm_net.o
LOAD /home/liuboyuan/workspace/Hi3518_SDK_V1.0.8.0/mpp/3516C_src/common/comm_parameters.o
LOAD /home/liuboyuan/workspace/Hi3518_SDK_V1.0.8.0/mpp/3516C_src/common/comm_pipe.o
LOAD /home/liuboyuan/workspace/Hi3518_SDK_V1.0.8.0/mpp/3516C_src/common/comm_pool.o
LOAD /home/liuboyuan/workspace/Hi3518_SDK_V1.0.8.0/mpp/3516C_src/common/comm_pool_payload.o
LOAD /home/liuboyuan/workspace/Hi3518_SDK_V1.0.8.0/mpp/3516C_src/common/comm_queue.o
LOAD /home/liuboyuan/workspace/Hi3518_SDK_V1.0.8.0/mpp/3516C_src/common/comm_sharemem.o
LOAD /home/liuboyuan/workspace/Hi3518_SDK_V1.0.8.0/mpp/3516C_src/common/comm_spaceSafer.o
LOAD /home/liuboyuan/workspace/Hi3518_SDK_V1.0.8.0/mpp/3516C_src/common/comm_stream.o
LOAD /home/liuboyuan/workspace/Hi3518_SDK_V1.0.8.0/mpp/3516C_src/common/comm_string.o
LOAD /home/liuboyuan/workspace/Hi3518_SDK_V1.0.8.0/mpp/3516C_src/common/comm_timer.o
LOAD /home/liuboyuan/workspace/Hi3518_SDK_V1.0.8.0/mpp/3516C_src/common/comm_util.o
LOAD /home/liuboyuan/workspace/Hi3518_SDK_V1.0.8.0/mpp/lib/libmpi.a
LOAD /home/liuboyuan/workspace/Hi3518_SDK_V1.0.8.0/mpp/lib/libisp.a
LOAD /home/liuboyuan/workspace/Hi3518_SDK_V1.0.8.0/mpp/lib/libsns_imx122.a
LOAD /home/liuboyuan/workspace/Hi3518_SDK_V1.0.8.0/mpp/3516C_src/base/rtpLib/libjrtp-3.5.0.so
LOAD /home/liuboyuan/workspace/Hi3518_SDK_V1.0.8.0/mpp/3516C_src/base/rtpLib/libjthread-1.2.1.so
LOAD /home/liuboyuan/workspace/Hi3518_SDK_V1.0.8.0/mpp/lib/libVoiceEngine.a
LOAD /home/liuboyuan/workspace/Hi3518_SDK_V1.0.8.0/mpp/lib/libaec.a
LOAD /home/liuboyuan/workspace/Hi3518_SDK_V1.0.8.0/mpp/lib/libresampler.a
LOAD /home/liuboyuan/workspace/Hi3518_SDK_V1.0.8.0/mpp/lib/libanr.a
LOAD /opt/hisi-linux-nptl/arm-hisiv100-linux/bin/../lib/gcc/arm-hisiv100-linux-uclibcgnueabi/4.4.1/../../../../arm-hisiv100-linux-uclibcgnueabi/lib/libstdc++.so
LOAD /opt/hisi-linux-nptl/arm-hisiv100-linux/bin/../target/usr/lib/libm.so
LOAD /opt/hisi-linux-nptl/arm-hisiv100-linux/bin/../lib/gcc/arm-hisiv100-linux-uclibcgnueabi/4.4.1/../../../../arm-hisiv100-linux-uclibcgnueabi/lib/libgcc_s.so
LOAD /opt/hisi-linux-nptl/arm-hisiv100-linux/bin/../lib/gcc/arm-hisiv100-linux-uclibcgnueabi/4.4.1/libgcc.a
LOAD /opt/hisi-linux-nptl/arm-hisiv100-linux/bin/../target/usr/lib/libc.so
START GROUP
LOAD /opt/hisi-linux-nptl/arm-hisiv100-linux/bin/../target/lib/libc.so.0
LOAD /opt/hisi-linux-nptl/arm-hisiv100-linux/bin/../target/usr/lib/uclibc_nonshared.a
LOAD /opt/hisi-linux-nptl/arm-hisiv100-linux/bin/../target/lib/ld-uClibc.so.0
END GROUP
LOAD /opt/hisi-linux-nptl/arm-hisiv100-linux/bin/../lib/gcc/arm-hisiv100-linux-uclibcgnueabi/4.4.1/../../../../arm-hisiv100-linux-uclibcgnueabi/lib/libgcc_s.so
LOAD /opt/hisi-linux-nptl/arm-hisiv100-linux/bin/../lib/gcc/arm-hisiv100-linux-uclibcgnueabi/4.4.1/libgcc.a
LOAD /opt/hisi-linux-nptl/arm-hisiv100-linux/bin/../lib/gcc/arm-hisiv100-linux-uclibcgnueabi/4.4.1/crtend.o
LOAD /opt/hisi-linux-nptl/arm-hisiv100-linux/bin/../target/usr/lib/crtn.o
                0x00008000                PROVIDE (__executable_start, 0x8000)
                0x00008114                . = (0x8000 + SIZEOF_HEADERS)

.interp         0x00008114       0x14
 *(.interp)
 .interp        0x00008114       0x14 /opt/hisi-linux-nptl/arm-hisiv100-linux/bin/../target/lib/libpthread.so.0

.note.gnu.build-id
 *(.note.gnu.build-id)

.hash           0x00008128      0x8d8
 *(.hash)
 .hash          0x00008128      0x8d8 /opt/hisi-linux-nptl/arm-hisiv100-linux/bin/../target/lib/libpthread.so.0

.gnu.hash
 *(.gnu.hash)

.dynsym         0x00008a00     0x12d0
 *(.dynsym)
 .dynsym        0x00008a00     0x12d0 /opt/hisi-linux-nptl/arm-hisiv100-linux/bin/../target/lib/libpthread.so.0

.dynstr         0x00009cd0     0x111a
 *(.dynstr)
 .dynstr        0x00009cd0     0x111a /opt/hisi-linux-nptl/arm-hisiv100-linux/bin/../target/lib/libpthread.so.0

.gnu.version    0x0000adea      0x25a
 *(.gnu.version)
 .gnu.version   0x0000adea      0x25a /opt/hisi-linux-nptl/arm-hisiv100-linux/bin/../target/lib/libpthread.so.0

.gnu.version_d  0x0000b044        0x0
 *(.gnu.version_d)
 .gnu.version_d
                0x00000000        0x0 /opt/hisi-linux-nptl/arm-hisiv100-linux/bin/../target/lib/libpthread.so.0

.gnu.version_r  0x0000b044       0x20
 *(.gnu.version_r)
 .gnu.version_r
                0x0000b044       0x20 /opt/hisi-linux-nptl/arm-hisiv100-linux/bin/../target/lib/libpthread.so.0

.rel.dyn        0x0000b064      0x2f0
 *(.rel.init)
 *(.rel.text .rel.text.* .rel.gnu.linkonce.t.*)
 *(.rel.fini)
 *(.rel.rodata .rel.rodata.* .rel.gnu.linkonce.r.*)
 *(.rel.data.rel.ro* .rel.gnu.linkonce.d.rel.ro.*)
 *(.rel.data .rel.data.* .rel.gnu.linkonce.d.*)
 *(.rel.tdata .rel.tdata.* .rel.gnu.linkonce.td.*)
 *(.rel.tbss .rel.tbss.* .rel.gnu.linkonce.tb.*)
 *(.rel.ctors)
 *(.rel.dtors)
 *(.rel.got)
 .rel.got       0x0000b064      0x2c0 /opt/hisi-linux-nptl/arm-hisiv100-linux/bin/../target/lib/libpthread.so.0
 *(.rel.bss .rel.bss.* .rel.gnu.linkonce.b.*)
 .rel.bss       0x0000b324       0x30 /opt/hisi-linux-nptl/arm-hisiv100-linux/bin/../target/lib/libpthread.so.0
 *(.rel.ifunc)

.rela.dyn
 *(.rela.init)
 *(.rela.text .rela.text.* .rela.gnu.linkonce.t.*)
 *(.rela.fini)
 *(.rela.rodata .rela.rodata.* .rela.gnu.linkonce.r.*)
 *(.rela.data .rela.data.* .rela.gnu.linkonce.d.*)
 *(.rela.tdata .rela.tdata.* .rela.gnu.linkonce.td.*)
 *(.rela.tbss .rela.tbss.* .rela.gnu.linkonce.tb.*)
 *(.rela.ctors)
 *(.rela.dtors)
 *(.rela.got)
 *(.rela.bss .rela.bss.* .rela.gnu.linkonce.b.*)
 *(.rela.ifunc)

.rel.plt        0x0000b354      0x590
 *(.rel.plt)
 .rel.plt       0x0000b354      0x590 /opt/hisi-linux-nptl/arm-hisiv100-linux/bin/../target/lib/libpthread.so.0
                0x0000b8e4                PROVIDE (__rel_iplt_start, .)
 *(.rel.iplt)
                0x0000b8e4                PROVIDE (__rel_iplt_end, .)

.rela.plt       0x0000b8e4        0x0
 *(.rela.plt)
                0x0000b8e4                PROVIDE (__rela_iplt_start, .)
 *(.rela.iplt)
                0x0000b8e4                PROVIDE (__rela_iplt_end, .)

.init           0x0000b8e4       0x10
 *(.init)
 .init          0x0000b8e4        0xc /opt/hisi-linux-nptl/arm-hisiv100-linux/bin/../target/usr/lib/crti.o
                0x0000b8e4                _init
 .init          0x0000b8f0        0x4 /opt/hisi-linux-nptl/arm-hisiv100-linux/bin/../target/usr/lib/crtn.o

.plt            0x0000b8f4      0x86c
 *(.plt)
 .plt           0x0000b8f4      0x86c /opt/hisi-linux-nptl/arm-hisiv100-linux/bin/../target/lib/libpthread.so.0
                0x0000b908                poll
                0x0000b914                sem_init
                0x0000b920                bind
                0x0000b92c                _ZN10RTPSession28SetDefaultTimestampIncrementEj
                0x0000b938                difftime
                0x0000b944                _ZN10RTPSession6CreateERK16RTPSessionParamsPK21RTPTransmissionParams
                0x0000b950                strftime
                0x0000b95c                calloc
                0x0000b968                __errno_location
                0x0000b974                open
                0x0000b980                pthread_attr_setdetachstate
                0x0000b98c                _ZN10RTPSession10BYEDestroyERK7RTPTimePKvj
                0x0000b998                fwrite
                0x0000b9a4                system
                0x0000b9b0                __aeabi_dmul@@GCC_3.5
                0x0000b9bc                usleep
                0x0000b9c8                memcpy
                0x0000b9d4                connect
                0x0000b9e0                _ZN16RTPSessionParams16SetUsePollThreadEb
                0x0000b9ec                getline
                0x0000b9f8                sleep
                0x0000ba04                send
                0x0000ba10                pthread_mutex_init
                0x0000ba1c                putchar
                0x0000ba28                strspn
                0x0000ba34                pthread_attr_init
                0x0000ba40                gettimeofday
                0x0000ba4c                statvfs
                0x0000ba58                strcat
                0x0000ba64                prctl
                0x0000ba70                remove
                0x0000ba7c                __pthread_unregister_cancel
                0x0000ba88                getcwd
                0x0000ba94                mkdir
                0x0000baa0                atol
                0x0000baac                malloc
                0x0000bab8                _ZdlPv
                0x0000bac4                setitimer
                0x0000bad0                strrchr
                0x0000badc                strncmp
                0x0000bae8                __uClibc_main
                0x0000baf4                scandir
                0x0000bb00                ioctl
                0x0000bb0c                pthread_rwlock_rdlock
                0x0000bb18                recv
                0x0000bb24                strlen
                0x0000bb30                pthread_mutex_lock
                0x0000bb3c                opendir
                0x0000bb48                stat
                0x0000bb54                strtol
                0x0000bb60                fcntl
                0x0000bb6c                snprintf
                0x0000bb78                __cxa_pure_virtual
                0x0000bb84                __pthread_unwind_next
                0x0000bb90                __aeabi_atexit
                0x0000bb9c                settimeofday
                0x0000bba8                read
                0x0000bbb4                select
                0x0000bbc0                cfsetispeed
                0x0000bbcc                _exit
                0x0000bbd8                sem_destroy
                0x0000bbe4                access
                0x0000bbf0                fdopen
                0x0000bbfc                __assert
                0x0000bc08                __gxx_personality_v0
                0x0000bc14                pthread_mutex_destroy
                0x0000bc20                __aeabi_ddiv@@GCC_3.5
                0x0000bc2c                mktime
                0x0000bc38                mmap
                0x0000bc44                memmove
                0x0000bc50                getpagesize
                0x0000bc5c                fclose
                0x0000bc68                setsockopt
                0x0000bc74                fread
                0x0000bc80                pthread_rwlock_wrlock
                0x0000bc8c                fopen
                0x0000bc98                cfsetospeed
                0x0000bca4                _ZN10RTPSession14AddDestinationERK10RTPAddress
                0x0000bcb0                chmod
                0x0000bcbc                _ZN10RTPSession14SetDefaultMarkEb
                0x0000bcc8                time
                0x0000bcd4                strtok
                0x0000bce0                pthread_create
                0x0000bcec                write
                0x0000bcf8                getsockopt
                0x0000bd04                isatty
                0x0000bd10                closedir
                0x0000bd1c                __aeabi_d2iz
                0x0000bd28                pthread_cond_signal
                0x0000bd34                localtime
                0x0000bd40                close
                0x0000bd4c                __cxa_end_cleanup
                0x0000bd58                _ZNSt8ios_base4InitD1Ev
                0x0000bd64                shmget
                0x0000bd70                __aeabi_uidiv@@GCC_3.5
                0x0000bd7c                _ZN10RTPSession21SetDefaultPayloadTypeEh
                0x0000bd88                fgets
                0x0000bd94                sscanf
                0x0000bda0                strncpy
                0x0000bdac                pthread_cond_timedwait
                0x0000bdb8                strptime
                0x0000bdc4                shmat
                0x0000bdd0                tcsetattr
                0x0000bddc                shmdt
                0x0000bde8                __aeabi_d2uiz@@GCC_3.5
                0x0000bdf4                pthread_cond_init
                0x0000be00                __aeabi_i2d@@GCC_3.5
                0x0000be0c                _ZN10RTPSession17DeleteDestinationERK10RTPAddress
                0x0000be18                tcgetattr
                0x0000be24                _ZN16RTPSessionParamsC1Ev
                0x0000be30                __aeabi_uidivmod@@GCC_3.5
                0x0000be3c                chdir
                0x0000be48                unlink
                0x0000be54                __pthread_register_cancel
                0x0000be60                __sigsetjmp
                0x0000be6c                fflush
                0x0000be78                memset
                0x0000be84                pthread_rwlock_destroy
                0x0000be90                inet_ntoa
                0x0000be9c                qsort
                0x0000bea8                perror
                0x0000beb4                stime
                0x0000bec0                _ZNSt8ios_base4InitC1Ev
                0x0000becc                munmap
                0x0000bed8                tcflush
                0x0000bee4                fprintf
                0x0000bef0                _ZN10RTPSessionC1EN14RTPTransmitter20TransmissionProtocolE
                0x0000befc                inet_addr
                0x0000bf08                __aeabi_uldivmod@@GCC_3.5
                0x0000bf14                shmctl
                0x0000bf20                abort
                0x0000bf2c                memcmp
                0x0000bf38                sprintf
                0x0000bf44                pthread_exit
                0x0000bf50                socket
                0x0000bf5c                fseek
                0x0000bf68                pthread_cancel
                0x0000bf74                pthread_rwlock_init
                0x0000bf80                __aeabi_ui2d@@GCC_3.5
                0x0000bf8c                statfs
                0x0000bf98                exit
                0x0000bfa4                fork
                0x0000bfb0                pthread_rwlock_unlock
                0x0000bfbc                pthread_cond_broadcast
                0x0000bfc8                _ZN10RTPSession10SendPacketEPKvj
                0x0000bfd4                pthread_mutex_unlock
                0x0000bfe0                sem_post
                0x0000bfec                __aeabi_idiv@@GCC_3.5
                0x0000bff8                pthread_cond_destroy
                0x0000c004                strstr
                0x0000c010                strcmp
                0x0000c01c                __aeabi_idivmod@@GCC_3.5
                0x0000c028                waitpid
                0x0000c034                sem_trywait
                0x0000c040                index
                0x0000c04c                nftw
                0x0000c058                accept
                0x0000c064                free
                0x0000c070                readdir
                0x0000c07c                strchr
                0x0000c088                strtoll
                0x0000c094                strerror
                0x0000c0a0                listen
                0x0000c0ac                printf
                0x0000c0b8                pthread_cond_wait
                0x0000c0c4                _Znwj
                0x0000c0d0                strdup
                0x0000c0dc                puts
                0x0000c0e8                sem_getvalue
                0x0000c0f4                fscanf
                0x0000c100                signal
                0x0000c10c                pipe
                0x0000c118                pthread_setcancelstate
                0x0000c124                posix_memalign
                0x0000c130                __aeabi_dcmpgt@@GCC_3.5
                0x0000c13c                strcpy
                0x0000c148                sem_wait
                0x0000c154                pthread_join
 *(.iplt)

.text           0x0000c160    0x95180
 *(.text .stub .text.* .gnu.linkonce.t.*)
 .text          0x0000c160       0x3c /opt/hisi-linux-nptl/arm-hisiv100-linux/bin/../target/usr/lib/crt1.o
                0x0000c160                _start
 .text          0x0000c19c       0x3c /opt/hisi-linux-nptl/arm-hisiv100-linux/bin/../target/usr/lib/crti.o
                0x0000c19c                _call_via_r0
                0x0000c1a0                _call_via_r1
                0x0000c1a4                _call_via_r2
                0x0000c1a8                _call_via_r3
                0x0000c1ac                _call_via_r4
                0x0000c1b0                _call_via_r5
                0x0000c1b4                _call_via_r6
                0x0000c1b8                _call_via_r7
                0x0000c1bc                _call_via_r8
                0x0000c1c0                _call_via_r9
                0x0000c1c4                _call_via_sl
                0x0000c1c8                _call_via_fp
                0x0000c1cc                _call_via_ip
                0x0000c1d0                _call_via_sp
                0x0000c1d4                _call_via_lr
 .text          0x0000c1d8       0x4c /opt/hisi-linux-nptl/arm-hisiv100-linux/bin/../lib/gcc/arm-hisiv100-linux-uclibcgnueabi/4.4.1/crtbegin.o
 .text          0x0000c224      0x2bc ipc_main.o
                0x0000c224                main
 .text          0x0000c4e0      0xb2c /home/liuboyuan/workspace/Hi3518_SDK_V1.0.8.0/mpp/3516C_src/base/base_rtp.o
                0x0000c510                RTPSession_Audio_send
                0x0000c610                RTPSession_send
                0x0000ca70                RTPSession_destroy
                0x0000cab4                RTPSession_setplayloadtype
                0x0000cb10                RTPSession_addport
                0x0000cbf8                RTPSession_delport
                0x0000cce0                RTPSession_serverinit
                0x0000ce48                RTPSession_clientinit
 .text._ZN21RTPTransmissionParamsD1Ev
                0x0000d00c       0x10 /home/liuboyuan/workspace/Hi3518_SDK_V1.0.8.0/mpp/3516C_src/base/base_rtp.o
                0x0000d00c                _ZN21RTPTransmissionParamsD1Ev
 .text._ZN10RTPAddressD1Ev
                0x0000d01c       0x10 /home/liuboyuan/workspace/Hi3518_SDK_V1.0.8.0/mpp/3516C_src/base/base_rtp.o
                0x0000d01c                _ZN10RTPAddressD1Ev
 .text._ZN21RTPTransmissionParamsD0Ev
                0x0000d02c       0x20 /home/liuboyuan/workspace/Hi3518_SDK_V1.0.8.0/mpp/3516C_src/base/base_rtp.o
                0x0000d02c                _ZN21RTPTransmissionParamsD0Ev
 .text._ZN10RTPAddressD0Ev
                0x0000d04c       0x20 /home/liuboyuan/workspace/Hi3518_SDK_V1.0.8.0/mpp/3516C_src/base/base_rtp.o
                0x0000d04c                _ZN10RTPAddressD0Ev
 .text._ZN26RTPUDPv4TransmissionParamsD0Ev
                0x0000d06c       0x58 /home/liuboyuan/workspace/Hi3518_SDK_V1.0.8.0/mpp/3516C_src/base/base_rtp.o
                0x0000d06c                _ZN26RTPUDPv4TransmissionParamsD0Ev
 .text._ZN26RTPUDPv4TransmissionParamsD1Ev
                0x0000d0c4       0x50 /home/liuboyuan/workspace/Hi3518_SDK_V1.0.8.0/mpp/3516C_src/base/base_rtp.o
                0x0000d0c4                _ZN26RTPUDPv4TransmissionParamsD1Ev
 .text          0x0000d114      0x85c /home/liuboyuan/workspace/Hi3518_SDK_V1.0.8.0/mpp/3516C_src/base/base_api_ledctl.o
                0x0000d114                eBASE_API_LEDCTL_GreenOn
                0x0000d118                eBASE_API_LEDCTL_RedOff
                0x0000d11c                eBASE_API_LEDCTL_GreenOff
                0x0000d120                eBASE_API_LEDCTL_RedOn
                0x0000d124                eBASE_API_LEDCTL_GreenBlink
                0x0000d144                eBASE_API_LEDCTL_ChangeLed
                0x0000d1cc                eBASE_API_LEDCTL_LedUpdate
                0x0000d580                pvBASE_API_LEDCTL_Thread_Cleanup
                0x0000d5b0                pvBASE_API_LEDCTL_ThreadHandle
                0x0000d750                eBASE_API_LEDCTL_StopThread
                0x0000d780                eBASE_API_LEDCTL_StartThread
                0x0000d7c8                eBASE_API_LEDCTL_Deinit
                0x0000d888                eBASE_API_LEDCTL_Init
 .text          0x0000d970      0x87c /home/liuboyuan/workspace/Hi3518_SDK_V1.0.8.0/mpp/3516C_src/base/base_AVMsgManagement.o
                0x0000d970                lBASE_VENC_DeInitGlobal
                0x0000da0c                lBASE_VENC_InitGlobal
                0x0000dd80                vBASE_AVMsgManagement
 .text          0x0000e1ec      0xaf8 /home/liuboyuan/workspace/Hi3518_SDK_V1.0.8.0/mpp/3516C_src/base/base_comm_isp.o
                0x0000e1ec                SAMPLE_COMM_ISP_Stop
                0x0000e20c                SAMPLE_COMM_ISP_GetLine
                0x0000e2e8                SAMPLE_COMM_ISP_Init
                0x0000e3b0                SAMPLE_COMM_ISP_Run
                0x0000e414                SAMPLE_COMM_ISP_ChangeSensorMode
                0x0000e4a0                SAMPLE_COMM_ISP_SensorInit
                0x0000e4dc                SAMPLE_COMM_ISP_File2Reg
                0x0000e7ac                SAMPLE_COMM_ISP_LoadRegFile
                0x0000e7ec                SAMPLE_COMM_ISP_CircleWriteReg
                0x0000e894                SAMPLE_COMM_ISP_Reg2File
                0x0000eca4                SAMPLE_COMM_ISP_SaveRegFile
 .text          0x0000ece4      0x918 /home/liuboyuan/workspace/Hi3518_SDK_V1.0.8.0/mpp/3516C_src/base/base_comm_sys.o
                0x0000ece4                SAMPLE_COMM_SYS_GetPicSize
                0x0000eef8                SAMPLE_COMM_SYS_Exit
                0x0000ef08                SAMPLE_COMM_SYS_CalcPicVbBlkSize
                0x0000f024                SAMPLE_COMM_SYS_CalcHistVbBlkSize
                0x0000f0c0                SAMPLE_COMM_SYS_Payload2FilePostfix
                0x0000f168                SAMPLE_COMM_SYS_Init
                0x0000f2a0                SAMPLE_COMM_SYS_MemConfig
 .text          0x0000f5fc     0x1b0c /home/liuboyuan/workspace/Hi3518_SDK_V1.0.8.0/mpp/3516C_src/base/base_comm_venc.o
                0x0000f5fc                SAMPLE_COMM_VENC_StopGetStream
                0x0000f638                SAMPLE_COMM_VENC_StartGetStream
                0x0000f66c                SAMPLE_COMM_VENC_SnapStop
                0x0000f704                SAMPLE_COMM_VENC_Stop
                0x0000f818                SAMPLE_COMM_VENC_SnapStart
                0x0000f8f0                SAMPLE_COMM_VENC_Start
                0x0000fecc                SAMPLE_COMM_VENC_SaveJPEG
                0x0000ff38                SAMPLE_COMM_VENC_SaveSnap
                0x00010008                SAMPLE_COMM_VENC_SnapProcess
                0x0001035c                SAMPLE_COMM_VENC_SaveMJpeg
                0x000103c8                SAMPLE_COMM_VENC_SaveH264
                0x00010470                SAMPLE_COMM_VENC_SaveStream
                0x000104a8                SAMPLE_COMM_VENC_GetFilePostfix
                0x00010570                SAMPLE_COMM_VENC_GetVencStreamProc
                0x00010e70                SAMPLE_COMM_VENC_UnBindVpss
                0x00010eec                SAMPLE_COMM_VENC_BindVpss
                0x00010f68                SAMPLE_COMM_VENC_MemConfig
 .text          0x00011108     0x14e4 /home/liuboyuan/workspace/Hi3518_SDK_V1.0.8.0/mpp/3516C_src/base/base_comm_vi.o
                0x00011108                SAMPLE_COMM_VI_Mode2Param
                0x00011124                SAMPLE_COMM_VI_GetDev
                0x0001112c                IsSensorInput
                0x00011138                SAMPLE_COMM_VI_Mode2Size
                0x00011194                SAMPLE_COMM_VI_ChangeCapSize
                0x00011240                SAMPLE_COMM_VI_PlanToSemi
                0x000113d0                SAMPLE_COMM_VI_ReadFrame
                0x000115e0                SAMPLE_COMM_VI_GetVFrameFromYUV
                0x000117a0                SAMPLE_COMM_VI_UnBindVenc
                0x0001181c                SAMPLE_COMM_VI_UnBindVpss
                0x00011898                SAMPLE_COMM_VI_StopBT656
                0x00011924                SAMPLE_COMM_VI_StopIsp
                0x000119e8                SAMPLE_COMM_VI_StopVi
                0x00011a48                SAMPLE_COMM_VI_BindVenc
                0x00011ac4                SAMPLE_COMM_VI_BindVpss
                0x00011b40                SAMPLE_COMM_VI_StartChn
                0x00011cdc                SAMPLE_COMM_VI_StartDev
                0x00011ed4                SAMPLE_COMM_VI_StartIsp
                0x00012088                SAMPLE_COMM_VI_MemConfig
                0x0001212c                SAMPLE_TW2865_CfgV
                0x0001239c                SAMPLE_COMM_VI_ADStart
                0x0001241c                SAMPLE_COMM_VI_StartBT656
                0x00012588                SAMPLE_COMM_VI_StartVi
 .text          0x000125ec      0x998 /home/liuboyuan/workspace/Hi3518_SDK_V1.0.8.0/mpp/3516C_src/base/base_comm_vpss.o
                0x000125ec                SAMPLE_COMM_VPSS_DisableChn
                0x00012678                SAMPLE_COMM_VPSS_Stop
                0x000127a0                SAMPLE_COMM_VPSS_StopGroup
                0x00012848                SAMPLE_COMM_VPSS_Start
                0x00012c00                SAMPLE_COMM_VPSS_StartGroup
                0x00012d30                SAMPLE_COMM_VPSS_EnableChn
                0x00012e98                SAMPLE_COMM_VPSS_MemConfig
 .text          0x00012f84      0x198 /home/liuboyuan/workspace/Hi3518_SDK_V1.0.8.0/mpp/3516C_src/base/base_ircut_ctl.o
                0x00012f84                eBASE_IRCUT_CTL_Init
                0x00012f8c                eBASE_IRCUT_CTL_DeInit
                0x00012f94                eBASE_IRCUT_CTL_ConfigADC
                0x0001308c                vTimeDisplay
                0x000130f0                vBASE_IRCUT_CTL_CallBack
 .text          0x0001311c      0xbb8 /home/liuboyuan/workspace/Hi3518_SDK_V1.0.8.0/mpp/3516C_src/base/base_loadbmp.o
                0x0001311c                OSD_MAKECOLOR_U16
                0x000131dc                GetExtName
                0x00013284                GetBmpInfo
                0x0001335c                LoadBMPEx
                0x000137fc                LoadImageEx
                0x00013864                CreateSurfaceByBitMap
                0x000138c0                LoadBMP
                0x00013c50                LoadImage
                0x00013cb0                LoadBitMap2Surface
 .text          0x00013cd4     0x261c /home/liuboyuan/workspace/Hi3518_SDK_V1.0.8.0/mpp/3516C_src/base/base_mw_boardinterface.o
                0x00013cd4                vBASE_VI_INIT_CH
                0x00013d20                vBASE_VENC_INIT_CH
                0x00013d38                lBASE_VI_StopChn
                0x00013d40                lBASE_VI_STOP
                0x00013d48                lBASE_VPSS_INIT_CH
                0x00013d68                lBASE_COMM_JUDGE_ISLICE
                0x00013de4                lBASE_COMM_VENC_ADJUSTISP_CSC
                0x00013e28                lBASE_COMM_VENC_ADJUSTISP_ANTICOLOR
                0x00013e58                lBASE_COMM_VENC_ADJUSTISP_GAMMA
                0x00013ea8                lBASE_COMM_VENC_ADJUSTISP_AE_EX
                0x00013ef8                vBASE_COMM_VENC_ISPSetAEAttr
                0x00013f40                lBASE_COMM_VENC_ADJUSTISP_AE_STATIC
                0x00013fa8                lBASE_COMM_VENC_ADJUSTISP_AE_BASIC
                0x00014038                lBASE_COMM_VENC_ADJUSTISP_LDC
                0x0001408c                lBASE_COMM_VENC_ADJUSTISP_DRC
                0x000140c4                vBASE_COMM_VENC_ISPSetDRC
                0x000140f0                vBASE_COMM_VENC_ISPSetAntiFog
                0x00014124                vBASE_COMM_VENC_ISPSetDenoise
                0x00014154                vBASE_COMM_VENC_ISPSetAWBAttr
                0x00014188                lBASE_COMM_VENC_ADJUSTISP
                0x000141a8                vBASE_COMM_VENC_ISPSetAntiFlicker
                0x000141e4                vBASE_COMM_VENC_ISPGetDRC
                0x000142c0                vBASE_COMM_VENC_ISPGetAntiFog
                0x00014304                vBASE_COMM_VENC_ISPGetAntiFakeColor
                0x00014338                vBASE_COMM_VENC_ISPGetBlackLevel
                0x000143a8                vBASE_COMM_VENC_ISPGetDIS
                0x000143dc                vBASE_COMM_VENC_ISPGetAWBPara
                0x00014674                vBASE_COMM_VENC_ISPGetAEPara
                0x000148e0                vBASE_COMM_VENC_ISPGetModuleControl
                0x00014914                lBASE_COMM_START_VPSS_EXT
                0x000149d0                vBASE_CH_INIT
                0x00014a30                lBASE_COMM_START_VPSS_BASE
                0x00014b30                lBASE_SYS_CalcPicVbBlkSize
                0x00014c24                lBASE_SYS_DefVb
                0x00014ca4                lBASE_COMM_STOP_VPSSGROUP
                0x00014d1c                lBASE_VPSS_STOP_CH
                0x00014e4c                lBASE_COMM_START_VPSSGROUP
                0x00014f44                lBASE_VPSS_START_CH
                0x00015078                lBASE_COMM_VENC_UnBindVpss
                0x000150a4                lBASE_COMM_VENC_BindVpss
                0x000150d0                lBASE_COMM_VENC_Start
                0x000155b8                lBASE_VENC_StreamStart
                0x0001561c                lBASE_VENC_HANDLE_Write
                0x0001588c                pvBASE_VENC_GetVencStreamProc
                0x00016048                lBASE_CreateSurfaceByBitMap
                0x0001605c                lBASE_GetBmpInfo
                0x00016070                lBASE_VENC_StreamStop
                0x000160c0                lBASE_VENC_STOP
                0x0001619c                vBASE_SYS_Exit
                0x000161a0                lBASE_VENC_StopGetStream
                0x000161d0                lBASE_VENC_StartGetStream
                0x00016204                lBASE_VI_Deinit
                0x00016234                lBASE_VI_Init
                0x00016284                lBASE_SYS_Init
                0x00016298                lBASE_VENC_START_CH
 .text          0x000162f0      0x578 /home/liuboyuan/workspace/Hi3518_SDK_V1.0.8.0/mpp/3516C_src/base/base_mw_filesort.o
                0x000162f0                iBASE_MW_FILESORT_GetOccupySize
                0x00016318                eBASE_MW_FILESORT_DeInit
                0x0001636c                eBASE_MW_FILESORT_Read
                0x000163a4                eBASE_MW_FILESORT_Write
                0x000163cc                eBASE_MW_FILESORT_Init
                0x0001662c                eBASE_MW_FILESORT_CheckSpace
                0x000166d0                eBASE_MW_FILESORT_GetUsedSpace
                0x00016758                iBASE_MW_FILESORT_SortByTime
 .text          0x00016868      0x29c /home/liuboyuan/workspace/Hi3518_SDK_V1.0.8.0/mpp/3516C_src/base/base_mw_modechange.o
                0x00016868                lBASE_MODE_CHANGE
                0x0001688c                eBASE_VI_GETVICH
                0x000168c8                lBASE_MODE_START
                0x00016a00                lBASE_MODE_INIT
 .text          0x00016b04      0x520 /home/liuboyuan/workspace/Hi3518_SDK_V1.0.8.0/mpp/3516C_src/base/base_mw_osd.o
                0x00016b04                vBASE_MW_OSD_SetColor
                0x00016b20                vBASE_MW_OSD_SetFGColor
                0x00016b40                vBASE_MW_OSD_SetBGColor
                0x00016b5c                eBASE_MW_OSD_StrToRgb
                0x00016d4c                eBASE_MW_OSD_GetCharSize
                0x00016d84                eBASE_MW_OSD_LoadBmp
                0x00016e0c                vBASE_MW_OSD_Init
                0x00016ee0                eBASE_MW_OSD_RgbBufToBitmap
                0x00016f44                eBASE_MW_OSD_StrToBitmap
 .text          0x00017024     0x1034 /home/liuboyuan/workspace/Hi3518_SDK_V1.0.8.0/mpp/3516C_src/base/base_mw_overlay.o
                0x00017024                eBASE_MW_OVERLAY_INIT
                0x00017344                eBASE_MW_OVERLAY_UpdataRegMessage
                0x000173ac                eBASE_MW_OVERLAY_getTwoAlignVal
                0x00017444                eBASE_MW_OVERLAY_GetPicSize
                0x000174a8                eBASE_MW_OVERLAY_checkVal
                0x00017558                eBASE_MW_OVERLAY_getViWidth
                0x0001758c                eBASE_MW_OVERLAY_STOP
                0x00017670                lBASE_MW_getTimeString
                0x0001770c                vBASE_freeBitmap
                0x00017734                eBASE_MW_OVERLAY_ChgDynamicAttr
                0x00017818                eBASE_MW_OVERLAY_START
                0x00017968                eBASE_MW_OVERLAY_ShowTime
                0x00017b1c                vShowTime
                0x00017bc8                eBASE_MW_OVERLAY_ShowString
                0x00017cb4                eBASE_MW_OVERLAY_ShowPicture
                0x00017d74                eBASE_MW_OVERLAY_ShowBmp
                0x00017f58                eBASE_MW_OVERLAY_ChgStaticAttr
                0x00017ffc                eBASE_MW_OVERLAY_changeAttr
 .text          0x00018058      0x588 /home/liuboyuan/workspace/Hi3518_SDK_V1.0.8.0/mpp/3516C_src/base/base_mw_region.o
                0x00018058                eBASE_MW_REGION_INIT
                0x000180cc                eBASE_MW_REGION_getTwoAlignVal
                0x0001812c                eBASE_MW_REGION_Handle
                0x000182a0                eBASE_MW_REGION_GetUpdatedParam
                0x00018468                eBASE_MW_REGION_STOP
                0x000184b8                eBASE_MW_REGION_CHANGE
                0x00018540                eBASE_MW_REGION_START
 .text          0x000185e0      0x448 /home/liuboyuan/workspace/Hi3518_SDK_V1.0.8.0/mpp/3516C_src/base/base_mw_sd.o
                0x000185e0                eBASE_SD_MW_REMOVEFILE
                0x00018694                eBASE_SD_MW_CHECKSTATUS
                0x00018718                eBASE_SD_MW_MKWORKDIR
                0x000187e4                eBASE_MW_SD_CHECKEXIST
                0x00018968                eBASE_MW_SD_CHECK
                0x00018988                eBASE_SD_MW_GETSPACE
                0x000189b4                eBASE_SD_MW_CheckSpace
 .text          0x00018a28      0xa90 /home/liuboyuan/workspace/Hi3518_SDK_V1.0.8.0/mpp/3516C_src/base/base_mw_snap.o
                0x00018a28                vBASE_SNAP_INIT
                0x00018a38                lBASE_VENC_SnapHandle_Init
                0x00018a5c                lBASE_VENC_SnapHandle_Stop
                0x00018ae8                lBASE_VENC_SnapStart
                0x00018bcc                lBASE_VENC_SnapHandle_Start
                0x00018be4                lBASE_VENC_SaveJPEG
                0x00018c98                lBASE_VENC_SaveSnap
                0x00018ff4                lBASE_VENC_SnapHandle_Process
                0x00019470                lBASE_VENC_SnapHandle
 .text          0x000194b8      0x3bc /home/liuboyuan/workspace/Hi3518_SDK_V1.0.8.0/mpp/3516C_src/base/base_mw_subcard.o
                0x000194b8                eBASE_MW_SUBCARD_GetOverlayType
                0x000194c8                eBASE_MW_SUBCARD_FeedBack
                0x000195b0                eBASE_MW_SUBCARD_UpdateOverlayType
                0x000195c0                eBASE_MW_SUBCARD_UpdateTimeTh
                0x000195d0                vBASE_MW_SUBCARD_Deinit_Cleanup
                0x000195d8                eBASE_MW_SUBCARD_Deinit
                0x00019670                eBASE_MW_SUBCARD_NewSignal
                0x00019714                eBASE_MW_SUBCARD_StartSigProcess
                0x00019748                pvBASE_MW_SUBCARD_SigProcess
                0x00019838                eBASE_MW_SUBCARD_Init
 .text          0x00019874      0x85c /home/liuboyuan/workspace/Hi3518_SDK_V1.0.8.0/mpp/3516C_src/base/base_mw_subcard_rec.o
                0x00019874                eBASE_MW_SUBCARD_REC_UpdateRecDuration
                0x00019890                eBASE_MW_SUBCARD_REC_UpdateOverlayType
                0x000198a0                eBASE_MW_SUBCARD_REC_GetOverlayType
                0x000198b4                eBASE_MW_SUBCARD_REC_GetFrameType
                0x00019960                vBASE_MW_SUBCARD_REC_Read
                0x00019be4                eBASE_MW_SUBCARD_REC_Consume
                0x00019f14                eBASE_MW_SUBCARD_REC_Deinit
                0x00019f80                eBASE_MW_SUBCARD_REC_Init
 .text          0x0001a0d0      0x3d0 /home/liuboyuan/workspace/Hi3518_SDK_V1.0.8.0/mpp/3516C_src/base/base_mw_time.o
                0x0001a0d0                eBASE_MW_TIME_CheckTime
                0x0001a130                lBASE_MW_TIME_CompareNowTime
                0x0001a170                eBASE_MW_TIME_GetSysCmd
                0x0001a1b4                lBASE_MW_TIME_CompareTime
                0x0001a280                eBASE_MW_TIME_SetTime
                0x0001a310                eBASE_MW_TIME_ConfigTimeFromCmd
                0x0001a428                eBASE_MW_TIME_GetTime
 .text          0x0001a4a0      0x5d8 /home/liuboyuan/workspace/Hi3518_SDK_V1.0.8.0/mpp/3516C_src/base/base_mw_wifi.o
                0x0001a4a0                eBASE_MW_WIFI_GeneralCloseScript
                0x0001a4bc                eBASE_MW_WIFI_CreatConfig
                0x0001a73c                eBASE_MW_WIFI_PowerOff
                0x0001a7a8                eBASE_MW_WIFI_PowerOn
                0x0001a814                eBASE_MW_WIFI_ExecuteCloseScript
                0x0001a820                eBASE_MW_WIFI_DisConnect
                0x0001a884                eBASE_MW_WIFI_Deinit
                0x0001a8ac                eBASE_MW_WIFI_ExecuteOpenScript
                0x0001a8b8                eBASE_MW_WIFI_Init
                0x0001a938                eBASE_MW_WIFI_GeneralOpenScript
                0x0001a99c                eBASE_MW_WIFI_Connect
                0x0001a9fc                eBASE_MW_WIFI_Update
 .text          0x0001aa78      0x3e0 /home/liuboyuan/workspace/Hi3518_SDK_V1.0.8.0/mpp/3516C_src/base/base_util_mux_imple_mpegts.o
                0x0001aa78                eBASE_UTIL_MUX_IMPLE_MPEGTS_Init
                0x0001aab8                eBASE_UTIL_MUX_IMPLE_MPEGTS_StopThread
                0x0001ab14                eBASE_UTIL_MUX_IMPLE_MPEGTS_StartThread
                0x0001ab70                eBASE_UTIL_MUX_IMPLE_MPEGTS_MuxRequest
                0x0001abb4                eBASE_UTIL_MUX_IMPLE_MPEGTS_Mux_Handle
                0x0001ac54                eBASE_UTIL_MUX_IMPLE_MPEGTS_Mux_PreHandle
                0x0001ac9c                eBASE_UTIL_MUX_IMPLE_MPEGTS_Mux
                0x0001acf0                pvBASE_UTIL_MUX_IMPLE_MPEGTS_MainHandle
                0x0001ad5c                eBASE_UTIL_MUX_IMPLE_MPEGTS_DeInit
                0x0001add0                eBASE_UTIL_MUX_IMPLE_MPEGTS_Construct
 .text          0x0001ae58     0x200c /home/liuboyuan/workspace/Hi3518_SDK_V1.0.8.0/mpp/3516C_src/base/base_venc_control.o
                0x0001ae58                lBASE_GET_PARAID
                0x0001ae70                vBASE_VENC_Ctrl_AttrInit
                0x0001af2c                lBASE_VENC_GetRecordUpdatedParam
                0x0001afe0                lBASE_VENC_ParaToVencPara
                0x0001b05c                lBASE_SYS_GetPicSize
                0x0001b0bc                lBASE_MW_COMM_IsISlice
                0x0001b158                lBASE_VENC_RtpParaHandle
                0x0001b41c                lBASE_VENC_RtpInitFromIplist
                0x0001b518                lBASE_VENC_RtpServerInit
                0x0001b570                lBASE_VENC_RtpUpdate
                0x0001b608                lBASE_VENC_GetRtpUpdatedParam
                0x0001b858                lBASE_VENC_ParaHandle
                0x0001b94c                lBASE_VENC_GetVencUpdatedParam
                0x0001ba90                lBASE_VENC_ReConfigTime
                0x0001baf4                lBASE_VENC_ConfigTime
                0x0001bb6c                lBASE_VENC_GetSystemUpdatedParam
                0x0001bd24                lBASE_VENC_Ctrl_VencStop
                0x0001c1ec                lBASE_VENC_Ctrl_Exit
                0x0001c204                lBASE_VENC_SystemParaHandle
                0x0001c438                lBASE_VENC_Ctrl_VencStart
                0x0001c4d0                lBASE_VENC_Ctrl_VencInit
                0x0001c588                lBASE_VENC_Ctrl_Region_Process
                0x0001c604                lBASE_VENC_Ctrl_VencProcess
                0x0001c68c                lBASE_VENC_Ctrl_SystemProcess
                0x0001c714                lBASE_VENC_Ctrl_RecordProcess
                0x0001c930                lBASE_VENC_Ctrl_EthHandle
                0x0001c968                lBASE_VENC_Ctrl_EthProcess
                0x0001ca98                lBASE_VENC_Ctrl_Process
                0x0001ce14                vBASE_VENC_Ctrl_Thread
 .text          0x0001ce64     0x128c /home/liuboyuan/workspace/Hi3518_SDK_V1.0.8.0/mpp/3516C_src/base/base_venc_dataconsume.o
                0x0001ce64                eBASE_VENC_DATACONSUME_UpdateTimeThreshold
                0x0001ce9c                eBASE_VENC_DATACONSUME_CloseFile
                0x0001cef0                eBASE_VENC_DATACONSUME_WriteCurrentFrame
                0x0001cf54                eBASE_VENC_DATACONSUME_OpenNewFile
                0x0001cfd8                BASE_VENC_DATACONSUME_ReadCallback_ISliceVersion
                0x0001d57c                BASE_VENC_DATACONSUME_ReadCallback
                0x0001d99c                pvVConsumer
                0x0001dac8                pvMConsumer
                0x0001de84                eBASE_VENC_DATACONSUME_StopVConsumer
                0x0001dea8                eBASE_VENC_DATACONSUME_StopMConsumer
                0x0001decc                eBASE_VENC_DATACONSUME_Deinit
                0x0001df60                eBASE_VENC_DATACONSUME_StartVConsumer
                0x0001df98                eBASE_VENC_DATACONSUME_StartMConsumer
                0x0001dfcc                eBASE_VENC_DATACONSUME_Init
 .text          0x0001e0f0      0x3b8 /home/liuboyuan/workspace/Hi3518_SDK_V1.0.8.0/mpp/3516C_src/base/base_venc_handle.o
                0x0001e0f0                vBASE_VENC_HIGHHANDLE_RtpSend
                0x0001e168                pvBASE_VENC_HITHHANDLE_DataHandle
                0x0001e190                eBASE_VENC_HIGHHANDLE_ThreadDeInit
                0x0001e1f4                eBASE_VENC_HIGHHANDLE_StopThread
                0x0001e228                eBASE_VENC_HANDLE_RtpCmdHandle
                0x0001e308                pvBASE_VENC_HIGHHANDLE_ThreadHandle
                0x0001e370                eBASE_VENC_HIGHHANDLE_RtpInit
                0x0001e3e4                eBASE_VENC_HIGHHANDLE_ThreadInit
                0x0001e404                eBASE_VENC_HIGHHANDLE_StartThread
                0x0001e45c                eBASE_VENC_HANDLE_ResDeInit
                0x0001e46c                eBASE_VENC_HANDLE_ResInit
 .text          0x0001e4a8      0x17c /home/liuboyuan/workspace/Hi3518_SDK_V1.0.8.0/mpp/3516C_src/ctrl/ctrl_api_button.o
                0x0001e4a8                pvCTRL_BUTTON_Thread
                0x0001e558                eCTRL_API_BUTTON_StopThread
                0x0001e584                eCTRL_API_BUTTON_StartThread
                0x0001e5bc                eCTRL_API_BUTTON_Deinit
                0x0001e5f0                eCTRL_API_BUTTON_Init
 .text          0x0001e624      0x130 /home/liuboyuan/workspace/Hi3518_SDK_V1.0.8.0/mpp/3516C_src/ctrl/ctrl_cmdPreHanle.o
                0x0001e624                vCTRL_CmdPreHandle
 .text          0x0001e754      0xb10 /home/liuboyuan/workspace/Hi3518_SDK_V1.0.8.0/mpp/3516C_src/ctrl/ctrl_guiReq.o
                0x0001e754                psCTRL_Gui_GetClient
                0x0001e77c                lCTRL_Gui_Client_ChkClose
                0x0001e7a4                vCTRL_Gui_ReachMax
                0x0001e7cc                vCTRL_Gui_Init
                0x0001e850                vCTRL_Gui_SendToClient
                0x0001e8d0                eCTRL_PostFeedback_RecHandle
                0x0001e92c                eCTRL_PostFeedback_VdaHandle
                0x0001e994                vCTRL_Gui_Close
                0x0001ea1c                vCTRL_Gui_ReqDown
                0x0001ea60                vCTRL_Gui_Feedback
                0x0001eb4c                pvCTRL_Gui_Control
                0x0001ebe4                pvCTRL_Gui_Client
                0x0001f05c                pvCTRL_Gui_Req
 .text          0x0001f264      0x23c /home/liuboyuan/workspace/Hi3518_SDK_V1.0.8.0/mpp/3516C_src/ctrl/ctrl_interactiveCtl.o
                0x0001f264                vCTRL_InteractiveCtl
 .text          0x0001f4a0      0x2c8 /home/liuboyuan/workspace/Hi3518_SDK_V1.0.8.0/mpp/3516C_src/ctrl/ctrl_reqResponse.o
                0x0001f4a0                vCTRL_Feedback
                0x0001f5b0                lCTRL_RequestResponse
 .text          0x0001f768     0x3e24 /home/liuboyuan/workspace/Hi3518_SDK_V1.0.8.0/mpp/3516C_src/ctrl/ctrl_terminalReq.o
                0x0001f768                lCTRL_TerminalReq_CheckHdmi
                0x0001f7f8                lCTRL_TerminalReq_CheckVda
                0x0001f8b0                lCTRL_TerminalReq_CheckReg
                0x0001f9fc                lCTRL_TerminalReq_CheckVenc
                0x0001fa3c                lCTRL_TerminalReq_CheckEth
                0x0001fac4                lCTRL_TerminalReq_CheckSys
                0x0001fbd4                lCTRL_TerminalReq_GetDebugCmd
                0x0001fc70                lCTRL_TerminalReq_GetCmd
                0x0001fdd4                lCTRL_TerminalReq_ParseRecCmd
                0x0001ffc4                lCTRL_TerminalReq_ParseVencCmd
                0x0002058c                lCTRL_TerminalReq_IspCmdHandle
                0x00020854                lCTRL_TerminalReq_ParseRegCmd
                0x0002129c                lCTRL_TerminalReq_ParseIspCmd
                0x00022070                lCTRL_TerminalReq_ParseEthCmd
                0x000228ec                vCTRL_TerminalReq_ShowHelp_Vda
                0x0002292c                vCTRL_TerminalReq_ShowHelp_Reg
                0x000229a8                vCTRL_TerminalReq_ShowHelp_Isp
                0x00022a60                vCTRL_TerminalReq_ShowHelp_Eth
                0x00022ae8                vCTRL_TerminalReq_ShowHelp_Venc
                0x00022b34                vCTRL_TerminalReq_ShowHelp_Rec
                0x00022b74                vCTRL_TerminalReq_ShowHelp_Hdmi
                0x00022ba8                vCTRL_TerminalReq_ShowHelp_System
                0x00022c54                vCTRL_TerminalReq_ShowHelp
                0x00022c88                lCTRL_TerminalReq_ParseSystemCmd
                0x00023000                lCTRL_TerminalReq_Cmd2Req
                0x00023128                pvCTRL_TerminalReq
 .text          0x0002358c      0x948 /home/liuboyuan/workspace/Hi3518_SDK_V1.0.8.0/mpp/3516C_src/ctrl/ctrl_uart_getCommand.o
                0x0002358c                eCTRL_UART_getCommand_CheckCommand
                0x00023678                eCTRL_UART_getCommand_CheckCode
                0x00023718                eCTRL_UART_getCommand_welcomeMessage_getMsg
                0x00023764                eCTRL_UART_getCommand_CheckFeedback
                0x00023798                eCTRL_UART_getCommand_RegularCommandLen
                0x000237e4                eCTRL_UART_getCommand_welcomeMessage
                0x0002381c                eCTRL_UART_getCommand_handleMessage
                0x000239e0                eCTRL_UART_getCommand_getMessage
                0x00023aec                eCTRL_UART_getCommand_GetFeedBack
                0x00023b1c                vCTRL_UART_getCommand_Thread_ClearThreadArg
                0x00023b5c                vCTRL_UART_getCommand_Thread_Cleanup
                0x00023b64                pvCTRL_UART_getCommand_Thread
                0x00023c98                eCTRL_UART_getCommand_StopThread
                0x00023ccc                eCTRL_UART_getCommand_StartThread
                0x00023d38                eCTRL_UART_getCommand_Deinit
                0x00023dd8                eCTRL_UART_getCommand_Init
 .text          0x00023ed4      0x3cc /home/liuboyuan/workspace/Hi3518_SDK_V1.0.8.0/mpp/3516C_src/ctrl/ctrl_uartReq.o
                0x00023ed4                eCTRL_UARTREQ_Feedback
                0x00023f90                eCTRL_UARTREQ_Deinit
                0x00023fec                vCTRL_UARTREQ_Thread_Cleanup
                0x00024034                eCTRL_UARTREQ_Init
                0x0002408c                pvCTRL_UARTREQ_Thread
                0x00024210                eCTRL_UARTREQ_StopThread
                0x00024244                eCTRL_UARTREQ_StartThread
 .text          0x000242a0      0x14c /home/liuboyuan/workspace/Hi3518_SDK_V1.0.8.0/mpp/3516C_src/ctrl/ctrl_uartReq_parseCommand.o
                0x000242a0                eCTRL_UARTREQ_PARSECOMMAND_GetCommandFunction
                0x00024358                eCTRL_UARTREQ_PARSECOMMAND_InitCommand
                0x00024374                eCTRL_UARTREQ_PARSECOMMAND_HandleCommand
 .text          0x000243ec      0x198 /home/liuboyuan/workspace/Hi3518_SDK_V1.0.8.0/mpp/3516C_src/ctrl/CTRL_UARTREQ_PARSECOMMAND_Common.o
                0x000243ec                vGetCorrectFeedback
                0x00024438                vGetErrorFeedback
                0x0002449c                vGetFeedback
                0x000244b0                vGetCharContent
                0x00024520                lNUCharToLong
 .text          0x00024584       0xa8 /home/liuboyuan/workspace/Hi3518_SDK_V1.0.8.0/mpp/3516C_src/ctrl/CTRL_UARTREQ_PARSECOMMAND_EMPTY.o
                0x00024584                pvCTRL_UARTREQ_PARSECOMMAND_EMPTY
 .text          0x0002462c      0x5f8 /home/liuboyuan/workspace/Hi3518_SDK_V1.0.8.0/mpp/3516C_src/ctrl/CTRL_UARTREQ_PARSECOMMAND_INTER.o
                0x0002462c                eCTRL_UARTREQ_PARSECOMMAND_INTER_DeltTimeCheck
                0x00024694                vCTRL_UARTREQ_PARSECOMMAND_INTER_WriteGPSOsdGPSYReq
                0x000248cc                vCTRL_UARTREQ_PARSECOMMAND_INTER_WriteGPSOsdGPSXReq
                0x00024b08                vCTRL_UDARTREQ_PARSECOMMAND_IINTER_WriteInterReq
                0x00024b74                pvCTRL_UARTREQ_PARSECOMMAND_INTER
 .text          0x00024c24      0x2b0 /home/liuboyuan/workspace/Hi3518_SDK_V1.0.8.0/mpp/3516C_src/ctrl/CTRL_UARTREQ_PARSECOMMAND_LED.o
                0x00024c24                vCTRL_UARTREQ_PARSECOMMAND_LED_WriteTimeOsdReq
                0x00024d94                vCTRL_UARTREQ_PARSECOMMAND_LED_WriteThreadStartReq
                0x00024dfc                vCTRL_UARTREQ_PARSECOMMAND_LED_WriteLedRequest
                0x00024e8c                pvCTRL_UARTREQ_PARSECOMMAND_LED
 .text          0x00024ed4       0x90 /home/liuboyuan/workspace/Hi3518_SDK_V1.0.8.0/mpp/3516C_src/ctrl/CTRL_UARTREQ_PARSECOMMAND_QUIT.o
                0x00024ed4                pvCTRL_UARTREQ_PARSECOMMAND_QUIT
 .text          0x00024f64       0xa4 /home/liuboyuan/workspace/Hi3518_SDK_V1.0.8.0/mpp/3516C_src/ctrl/CTRL_UARTREQ_PARSECOMMAND_SNAP.o
                0x00024f64                pvCTRL_UARTREQ_PARSECOMMAND_SNAP
 .text          0x00025008      0x594 /home/liuboyuan/workspace/Hi3518_SDK_V1.0.8.0/mpp/3516C_src/ctrl/CTRL_UARTREQ_PARSECOMMAND_TIME.o
                0x00025008                vCTRL_UARTREQ_PARSECOMMAND_TIME_WriteTimeOsdReq
                0x00025178                vCTRL_UARTREQ_PARSECOMMAND_TIME_WriteThreadStartReq
                0x000251e0                vCTRL_UDARTREQ_PARSECOMMAND_TIME_WriteAfterTimeReq
                0x0002528c                vCTRL_UDARTREQ_PARSECOMMAND_TIME_WriteBeforeTimeReq
                0x0002530c                vCTRL_UDARTREQ_PARSECOMMAND_TIME_WriteOverlayTypeReq
                0x00025384                vCTRL_UDARTREQ_PARSECOMMAND_TIME_GetTimeString
                0x00025438                vCTRL_UDARTREQ_PARSECOMMAND_TIME_WriteTimeReq
                0x00025510                pvCTRL_UARTREQ_PARSECOMMAND_TIME
 .text          0x0002559c      0x240 /home/liuboyuan/workspace/Hi3518_SDK_V1.0.8.0/mpp/3516C_src/ctrl/CTRL_UARTREQ_PARSECOMMAND_WIFI.o
                0x0002559c                vCTRL_UDARTREQ_PARSECOMMAND_WIFI_WriteWifiType
                0x000255e4                vCTRL_UDARTREQ_PARSECOMMAND_WIFI_WritePassWord
                0x00025680                vCTRL_UDARTREQ_PARSECOMMAND_WIFI_WriteUserName
                0x0002571c                pvCTRL_UARTREQ_PARSECOMMAND_WIFI
 .text          0x000257dc      0x1cc /home/liuboyuan/workspace/Hi3518_SDK_V1.0.8.0/mpp/3516C_src/ctrl/ctrl_uartReq_saveReq.o
                0x000257dc                eCTRL_UARTREQ_SAVEREQ_Init
                0x00025824                eCTRL_UARTREQ_SAVEREQ_Reset
                0x00025860                eCTRL_UARTREQ_SAVEREQ_ReadReq
                0x00025898                eCTRL_UARTREQ_SAVEREQ_Show
                0x00025924                eCTRL_UARTREQ_SAVEREQ_WriteReq
 .text          0x000259a8      0x550 /home/liuboyuan/workspace/Hi3518_SDK_V1.0.8.0/mpp/3516C_src/common/comm_command.o
                0x000259a8                vCOMM_CMD_InitCmd
                0x000259b0                lCOMM_CMD_CheckCmds
                0x000259b8                lCOMM_CMD_CheckCmdVenc
                0x00025a2c                lCOMM_CMD_CheckCmdEth
                0x00025aa4                lCOMM_CMD_CheckCmdHdmi
                0x00025aac                lCOMM_CMD_CheckCmdVda
                0x00025ab4                lCOMM_CMD_CheckCmdSystem
                0x00025ac4                lCOMM_CMD_CheckCmdIsp
                0x00025bec                lCOMM_CMD_CheckCmd
                0x00025c7c                lCOMM_CMD_CheckCmdRec
                0x00025c9c                vCOMM_CMD_Split
                0x00025d24                vCOMM_CMD_AddCmdHeadTail
                0x00025e0c                vCOMM_CMD_AddReqInfo
                0x00025e70                vCOMM_CMD_CmdToChar
                0x00025eac                vCOMM_CMD_CharToCmd
 .text          0x00025ef8      0x318 /home/liuboyuan/workspace/Hi3518_SDK_V1.0.8.0/mpp/3516C_src/common/comm_conditionFlag.o
                0x00025ef8                vCOMM_CF_GetTimeoutCF
                0x00025f38                vCOMM_CF_DeInitCF
                0x00025f80                vCOMM_CF_GetIdCF
                0x00025fec                vCOMM_CF_DeregCF
                0x00026018                vCOMM_CF_RegCF
                0x00026044                vCOMM_CF_SetIdCF
                0x000260d0                vCOMM_CF_WtCF
                0x00026108                vCOMM_CF_RdCF
                0x0002618c                vCOMM_CF_InitCF
 .text          0x00026210      0x218 /home/liuboyuan/workspace/Hi3518_SDK_V1.0.8.0/mpp/3516C_src/common/comm_dd_adc.o
                0x00026210                eCOMM_DD_ADC_GetRst
                0x00026238                eCOMM_DD_ADC_DeInit
                0x00026258                eCOMM_DD_ADC_Init
                0x000262cc                eCOMM_DD_ADC_GetCfg
                0x00026374                eCOMM_DD_ADC_Config
 .text          0x00026428       0xd4 /home/liuboyuan/workspace/Hi3518_SDK_V1.0.8.0/mpp/3516C_src/common/comm_dd_button.o
                0x00026428                eCOMM_DD_BUTTON_Close
                0x00026430                eCOMM_DD_BUTTON_Write
                0x0002647c                eCOMM_DD_BUTTON_Read
                0x000264c8                eCOMM_DD_BUTTON_Open
                0x000264ec                eCOMM_DD_BUTTON_Init
 .text          0x000264fc      0x110 /home/liuboyuan/workspace/Hi3518_SDK_V1.0.8.0/mpp/3516C_src/common/comm_dd_ircut.o
                0x000264fc                eCOMM_DD_IRCUT_DeInit
                0x0002651c                eCOMM_DD_IRCUT_Set
                0x000265ac                eCOMM_DD_IRCUT_Init
 .text          0x0002660c      0x5f0 /home/liuboyuan/workspace/Hi3518_SDK_V1.0.8.0/mpp/3516C_src/common/comm_dd_uart.o
                0x0002660c                eCOMM_DD_UART_Flush
                0x0002664c                eCOMM_DD_UART_SetStopBits
                0x000266b0                eCOMM_DD_UART_SetParity
                0x00026820                eCOMM_DD_UART_SetDataBits
                0x000268a8                eCOMM_DD_UART_SetFlowCtl
                0x0002691c                eCOMM_DD_UART_SetSpeed
                0x00026948                eCOMM_DD_UART_Deinit
                0x00026964                eCOMM_DD_UART_Close
                0x0002698c                eCOMM_DD_UART_Write
                0x000269c0                eCOMM_DD_UART_Read
                0x000269e0                eCOMM_DD_UART_Read_Timeout
                0x00026ac8                eCOMM_DD_UART_Open
                0x00026bc4                eCOMM_DD_UART_Init
 .text          0x00026bfc      0x58c /home/liuboyuan/workspace/Hi3518_SDK_V1.0.8.0/mpp/3516C_src/common/comm_debug.o
                0x00026bfc                vCOMM_SetBit
                0x00026c28                vCOMM_UnsetBit
                0x00026c54                vCOMM_IsSetBit
                0x00026c78                vCOMM_PrintTime
                0x00026cf4                eCOMM_GetFileName
                0x00026e5c                vCOMM_MemPrint
                0x000270e8                vCOMM_TimeMeasure
 .text          0x00027188      0x444 /home/liuboyuan/workspace/Hi3518_SDK_V1.0.8.0/mpp/3516C_src/common/comm_fileSort.o
                0x00027188                vFileSortShowEntry
                0x0002718c                eCOMM_FILESORT_DeInit
                0x000271f4                eCOMM_FILESORT_Read
                0x00027260                eCOMM_FILESORT_Write
                0x000272cc                eCOMM_FILESORT_Reset
                0x000272e0                eCOMM_FILESORT_GetCount
                0x000272f4                eCOMM_FILESORT_Delete
                0x00027334                lFileSortIsKeyOfValue
                0x00027348                eCOMM_FILESORT_Creat
                0x000274f8                eCOMM_FILESORT_Init
                0x00027534                iCOMM_FILESORT_SortByTime
 .text          0x000275cc      0x5c0 /home/liuboyuan/workspace/Hi3518_SDK_V1.0.8.0/mpp/3516C_src/common/comm_fileSystem.o
                0x000275cc                iCOMM_FILESYSTEM_GetOccupySize
                0x000275f4                eCOMM_FILESYSTEM_JudgeMakeUp
                0x00027624                eCOMM_FILESYSTEM_GetUsedSpaceSize
                0x000276cc                eCOMM_FILESYSTEM_GetFreeSpaceSize
                0x00027710                eCOMM_FILESYSTEM_GetFileSize
                0x00027784                eCOMM_FILESYSTEM_DeleteFile
                0x000277fc                eCOMM_FILESYSTEM_DeInit
                0x00027814                eCOMM_FILESYSTEM_Init
                0x00027830                eCOMM_FILESYSTEM_CHECKMOUNT
                0x000278f8                eCOMM_FILESYSTEM_CheckPath
                0x00027924                eCOMM_FILESYSTEM_GetAvailableSize
                0x000279ac                eCOMM_FILESYSTEM_CheckSpace
                0x000279e8                eCOMM_FILESYSTEM_GetToalSpaceSize
                0x00027a6c                eCOMM_FILESYSTEM_MakeUp
                0x00027b28                eCOMM_FILESYSTEM_GetPathInfo
 .text          0x00027b8c      0x768 /home/liuboyuan/workspace/Hi3518_SDK_V1.0.8.0/mpp/3516C_src/common/comm_iplist.o
                0x00027b8c                lCOMM_IPList_GetCh
                0x00027bc0                lCOMM_IPList_FindPort
                0x00027bf4                eCOMM_IPList_ToArray
                0x00027c7c                eCOMM_IPList_ChangeCH
                0x00027d2c                eCOMM_IPList_ChangeCH_ByArray
                0x00027e50                psCOMM_IPList_FindIP
                0x00027e8c                lCOMM_IPList_Find
                0x00027f2c                vCOMM_IPList_GetInfo
                0x00027ffc                lCOMM_IPList_Del
                0x00028164                vCOMM_IPList_DeInit
                0x000281e8                lCOMM_IPList_Add
                0x000282e0                vCOMM_IPList_Init
 .text          0x000282f4      0x57c /home/liuboyuan/workspace/Hi3518_SDK_V1.0.8.0/mpp/3516C_src/common/comm_list.o
                0x000282f4                eCOMM_LIST_Retrive_Node
                0x0002834c                eCOMM_LIST_Show_Node
                0x00028354                eCOMM_LIST_Traversal
                0x000283e0                eCOMM_LIST_ShowEntry
                0x00028444                eCOMM_LIST_Show_List
                0x0002847c                eCOMM_LIST_GetCount
                0x000284a8                eCOMM_LIST_RetrieveSpecial
                0x00028534                eCOMM_LIST_Update
                0x00028594                eCOMM_LIST_Retrieve
                0x000285f8                eCOMM_LIST_Reset
                0x00028660                eCOMM_LIST_Deinit
                0x00028698                eCOMM_LIST_Delete
                0x00028754                eCOMM_LIST_Create
                0x000287e8                eCOMM_LIST_Init
 .text          0x00028870      0x11c /home/liuboyuan/workspace/Hi3518_SDK_V1.0.8.0/mpp/3516C_src/common/comm_mw_led.o
                0x00028870                eCOMM_MW_LED_GreenOff
                0x0002888c                eCOMM_MW_LED_GreenOn
                0x000288a8                eCOMM_MW_LED_RedOff
                0x000288c4                eCOMM_MW_LED_RedOn
                0x000288e0                eCOMM_MW_LED_Deinit
                0x00028900                eCOMM_MW_LED_Close
                0x00028924                eCOMM_MW_LED_Open
                0x00028954                eCOMM_MW_LED_Init
 .text          0x0002898c      0x1d8 /home/liuboyuan/workspace/Hi3518_SDK_V1.0.8.0/mpp/3516C_src/common/comm_mw_strpool.o
                0x0002898c                COMM_MW_StrPool_GetStrPool
                0x000289bc                COMM_MW_StrPool_UpdateStrPool
                0x000289d0                COMM_MW_StrPool_WriteEntryPrePare
                0x00028a40                COMM_MW_StrPool_Init
                0x00028a74                COMM_MW_StrPool_ReadEntry
                0x00028ab8                COMM_MW_StrPool_WriteEntry
 .text          0x00028b64       0xf8 /home/liuboyuan/workspace/Hi3518_SDK_V1.0.8.0/mpp/3516C_src/common/comm_mw_time.o
                0x00028b64                eCOMM_MW_TIME_Reset
                0x00028b7c                lCOMM_MW_TIME_GetDeltTime
                0x00028b84                eCOMM_MW_TIME_Save
                0x00028b94                eCOMM_MW_TIME_Update
                0x00028be4                eCOMM_MW_TIME_Init
 .text          0x00028c5c      0x4c8 /home/liuboyuan/workspace/Hi3518_SDK_V1.0.8.0/mpp/3516C_src/common/comm_mw_vfile.o
                0x00028c5c                eCOMM_MW_VFILE_Show
                0x00028c64                eCOMM_MW_VFILE_Clear
                0x00028c7c                eCOMM_MW_VFILE_Reset
                0x00028ce0                eCOMM_MW_VFILE_Deinit
                0x00028d34                eCOMM_MW_VFILE_GetBlkSize
                0x00028d68                eCOMM_MW_VFILE_Init
                0x00028e6c                eCOMM_MW_VFILE_PreClose
                0x00028eec                eCOMM_MW_VFILE_Close
                0x00028f2c                eCOMM_MW_VFILE_Write
                0x000290a8                eCOMM_MW_VFILE_Open
 .text          0x00029124      0x3c8 /home/liuboyuan/workspace/Hi3518_SDK_V1.0.8.0/mpp/3516C_src/common/comm_net.o
                0x00029124                eCOMM_NET_ISCONNECT
                0x00029184                vCOMM_Net_DeInit
                0x000291a0                vCOMM_Net_Write
                0x0002920c                lCOMM_Net_Read
                0x0002932c                vCOMM_Net_Connect
                0x000293ac                vCOMM_Net_Init
 .text          0x000294ec     0x19dc /home/liuboyuan/workspace/Hi3518_SDK_V1.0.8.0/mpp/3516C_src/common/comm_parameters.o
                0x000294ec                vCOMM_PARA_CharToPara
                0x00029504                vCOMM_PARA_ParaToChar
                0x0002954c                vCOMM_PARA_ParasToChar
                0x000295bc                vCOMM_PARA_ParaIdToSubCommentHdmi
                0x000295d0                vCOMM_PARA_ParaIdToSubCommentRec
                0x0002963c                vCOMM_PARA_ParaIdToSubCommentISP
                0x00029a08                vCOMM_PARA_ParaIdToSubCommentEth
                0x00029a8c                vCOMM_PARA_ParaIdToSubCommentVenc
                0x00029af8                vCOMM_PARA_ParaIdToSubCommentSystem
                0x00029b28                vCOMM_PARA_ParaIdToComment
                0x00029d30                lCOMM_PARA_GetParaVal
                0x00029d5c                vCOMM_PARA_WriteParasBack
                0x00029ef0                lCOMM_PARA_GetParaId
                0x00029f1c                vCOMM_PARA_SetPara
                0x00029f4c                lCOMM_PARA_UpdateParas
                0x00029fb0                vCOMM_PARA_InitDefaultParas
                0x0002ac5c                lCOMM_PARA_InitCfgParas
                0x0002ae88                vCOMM_PARA_InitParas
 .text          0x0002aec8      0x144 /home/liuboyuan/workspace/Hi3518_SDK_V1.0.8.0/mpp/3516C_src/common/comm_pipe.o
                0x0002aec8                vCOMM_Pipe_DeInit
                0x0002af0c                vCOMM_Pipe_Write
                0x0002af34                vCOMM_Pipe_Read
                0x0002af6c                vCOMM_Pipe_Init
                0x0002afd8                vCOMM_Pipe_Create
 .text          0x0002b00c     0x155c /home/liuboyuan/workspace/Hi3518_SDK_V1.0.8.0/mpp/3516C_src/common/comm_pool.o
                0x0002b00c                eCOMM_POOL_InitAll
                0x0002b034                psCOMM_POOL_GetPoolFromId
                0x0002b050                eCOMM_POOL_GetFreePool
                0x0002b0c4                eCOMM_POOL_SetAllConsumerReader
                0x0002b134                eCOMM_POOL_SetConsumerReader
                0x0002b150                eCOMM_POOL_GetConsumerReader
                0x0002b170                eCOMM_POOL_GetConsumerKey
                0x0002b21c                eCOMM_POOL_ShowAllConsumerReader
                0x0002b224                eCOMM_POOL_GetConsumerStat
                0x0002b23c                eCOMM_POOL_SetConsumerStat
                0x0002b250                eCOMM_POOL_ResetConsumer
                0x0002b2d4                eCOMM_POOL_ShowReadList
                0x0002b2f8                eCOMM_POOL_QueryConsumerOrder
                0x0002b344                eCOMM_POOL_PreWriteHandle
                0x0002b3d4                eCOMM_POOL_SetBlkOrder
                0x0002b428                psCOMM_POOL_GetFreeBlk
                0x0002b4f4                eCOMM_POOL_ShowBlock
                0x0002b564                eCOMM_POOL_ShowPoolInfo
                0x0002b774                eCOMM_POOL_DeinitBlk
                0x0002b7d8                eCOMM_POOL_Update
                0x0002b94c                eCOMM_POOL_PushReader
                0x0002b9cc                eCOMM_POOL_RemoveConsumerReader
                0x0002ba44                eCOMM_POOL_InitBlk
                0x0002ba9c                eCOMM_POOL_Deinit
                0x0002bc5c                eCOMM_POOL_DeinitAll
                0x0002bd0c                eCOMM_POOL_Dettach
                0x0002bdb8                eCOMM_POOL_Write
                0x0002c020                eCOMM_POOL_Read
                0x0002c198                eCOMM_POOL_Attach
                0x0002c2f0                eCOMM_POOL_Init
 .text          0x0002c568      0x4f0 /home/liuboyuan/workspace/Hi3518_SDK_V1.0.8.0/mpp/3516C_src/common/comm_pool_payload.o
                0x0002c568                eCOMM_POOL_PAYLOAD_GetWriter
                0x0002c578                eCOMM_POOL_PAYLOAD_WriteExtraData
                0x0002c5e0                eCOMM_POOL_PAYLOAD_QueryAndFill
                0x0002c82c                eCOMM_POOL_PAYLOAD_Deinit
                0x0002c87c                eCOMM_POOL_PAYLOAD_Read
                0x0002c93c                eCOMM_POOL_PAYLOAD_Write
                0x0002c9d4                eCOMM_POOL_PAYLOAD_Init
 .text          0x0002ca58      0x1c0 /home/liuboyuan/workspace/Hi3518_SDK_V1.0.8.0/mpp/3516C_src/common/comm_queue.o
                0x0002ca58                vCOMM_LQ_DeInit
                0x0002caac                vCOMM_LQ_Read
                0x0002cb20                vCOMM_LQ_Write
                0x0002cbd0                vCOMM_LQ_Init
 .text          0x0002cc18      0x15c /home/liuboyuan/workspace/Hi3518_SDK_V1.0.8.0/mpp/3516C_src/common/comm_sharemem.o
                0x0002cc18                eCOMM_ShareMem_GetDate
                0x0002cc4c                vCOMM_ShareMem_Destroy
                0x0002cc70                vCOMM_ShareMem_Detach
                0x0002cc80                eCOMM_ShareMem_Write
                0x0002ccc0                eCOMM_ShareMem_Read
                0x0002ccf8                vCOMM_ShareMem_Attach
                0x0002cd28                vCOMM_ShareMem_Create
 .text          0x0002cd74      0x8a4 /home/liuboyuan/workspace/Hi3518_SDK_V1.0.8.0/mpp/3516C_src/common/comm_spaceSafer.o
                0x0002cd74                eCOMM_SPACESAFER_DeInit
                0x0002cdc8                eCOMM_SPACESAFER_Reset
                0x0002cdfc                eCOMM_SPACESAFER_Create
                0x0002ce5c                eCOMM_SPACESAFER_Init
                0x0002cf08                eCOMM_SPACESAFER_Restart
                0x0002cf28                eCOMM_SPACESAFER_CheckSpace
                0x0002cf98                eCOMM_SPACESAFER_QueryCheck
                0x0002d020                eCOMM_SPACESAFER_Compare
                0x0002d350                eCOMM_SPACESAFER_UnRegisterFile
                0x0002d358                eCOMM_SPACESAFER_DeleteOlderFile
                0x0002d3a0                eCOMM_SPACESAFER_QuerySpace
                0x0002d560                eCOMM_SPACESAFER_GetCurrentFileSize
                0x0002d5b0                eCOMM_SPACESAFER_QueryHealthy
                0x0002d5f8                eCOMM_SPACESAFER_RegisterFile
 .text          0x0002d618      0x24c /home/liuboyuan/workspace/Hi3518_SDK_V1.0.8.0/mpp/3516C_src/common/comm_stream.o
                0x0002d618                eCOMM_STREAM_FindByte
                0x0002d6a0                eCOMM_STREAM_Split
                0x0002d7dc                eCOMM_STREAM_FindNotByte
 .text          0x0002d864      0x160 /home/liuboyuan/workspace/Hi3518_SDK_V1.0.8.0/mpp/3516C_src/common/comm_string.o
                0x0002d864                COMM_STRING_ReplaceSubString
                0x0002d8c4                COMM_STRING_FindSubString
                0x0002d920                COMM_STRING_GetString
 .text          0x0002d9c4      0x454 /home/liuboyuan/workspace/Hi3518_SDK_V1.0.8.0/mpp/3516C_src/common/comm_timer.o
                0x0002d9c4                eCOMM_TIMER_Eclipse
                0x0002da08                vCOMM_TIMER_Handle
                0x0002da38                eCOMM_TIMER_GetTimeOutVal
                0x0002da50                eCOMM_TIMER_GetFreeTimer
                0x0002dae0                eCOMM_TIMER_Deinit
                0x0002dba8                eCOMM_TIMER_Init
                0x0002dc44                eCOMM_TIMER_DeinitAll
                0x0002dd4c                eCOMM_TIMER_InitAll
 .text          0x0002de18      0x45c /home/liuboyuan/workspace/Hi3518_SDK_V1.0.8.0/mpp/3516C_src/common/comm_util.o
                0x0002de18                eCOMM_UTIL_GetFrameType
                0x0002debc                eCOMM_UTIL_LoadTimeValfile
                0x0002df80                eCOMM_UTIL_LoadTimeCalendarfile
                0x0002e050                eCOMM_UTIL_SaveCurTimeVal2file
                0x0002e138                eCOMM_UTIL_SaveCurCalendarTime2file
                0x0002e20c                eCOMM_UTIL_GetFileName
 .text          0x0002e274      0xa9c /home/liuboyuan/workspace/Hi3518_SDK_V1.0.8.0/mpp/lib/libmpi.a(mpi_region.o)
                0x0002e274                HI_MPI_RGN_GetFd
                0x0002e2d4                HI_MPI_RGN_GetDisplayAttr
                0x0002e3f0                HI_MPI_RGN_SetDisplayAttr
                0x0002e4fc                HI_MPI_RGN_DetachFrmChn
                0x0002e5d0                HI_MPI_RGN_AttachToChn
                0x0002e6dc                HI_MPI_RGN_GetAttachField
                0x0002e7ac                HI_MPI_RGN_SetAttachField
                0x0002e840                HI_MPI_RGN_UpdBitMap
                0x0002e918                HI_MPI_RGN_SetBitMap
                0x0002e9ec                HI_MPI_RGN_SetAttr
                0x0002eac8                HI_MPI_RGN_GetAttr
                0x0002ebac                HI_MPI_RGN_Destroy
                0x0002ec34                HI_MPI_RGN_Create
 .text          0x0002ed10     0x19ac /home/liuboyuan/workspace/Hi3518_SDK_V1.0.8.0/mpp/lib/libmpi.a(mpi_sys.o)
                0x0002ed10                HI_MPI_LOG_GetFileHandle
                0x0002ed74                HI_MPI_SYS_GetFileHandle
                0x0002edd4                HI_MPI_SYS_GetSerialId
                0x0002ee84                HI_MPI_SYS_GetChipId
                0x0002ef34                HI_MPI_SetSysWizardSignSzxy1
                0x0002efd0                HI_MPI_SYS_GetCustomCode
                0x0002f0b4                HI_MPI_SYS_GetVRegAddr
                0x0002f154                HI_MPI_LOG_GetLevelConf
                0x0002f204                HI_MPI_LOG_SetWaitFlag
                0x0002f288                HI_MPI_LOG_SetLevelConf
                0x0002f338                HI_MPI_SYS_SyncPts
                0x0002f3c0                HI_MPI_SYS_InitPtsBase
                0x0002f448                HI_MPI_SYS_GetCurPts
                0x0002f4d4                HI_MPI_SYS_GetConf
                0x0002f584                HI_MPI_SYS_SetConf
                0x0002f634                MPI_SYS_GetKernelConfig
                0x0002f718                HI_MPI_SYS_GetMemConf
                0x0002f820                HI_MPI_SYS_SetMemConf
                0x0002f948                HI_MPI_SYS_MmzFlushCache
                0x0002f9f0                HI_MPI_SYS_MmzFree
                0x0002fb1c                HI_MPI_SYS_MmzAlloc_Cached
                0x0002fc9c                HI_MPI_SYS_MmzAlloc
                0x0002fe1c                HI_MPI_SYS_CloseFd
                0x0002fef8                HI_MPI_LOG_Close
                0x0002ff30                HI_MPI_SYS_Munmap
                0x0002ff54                HI_MPI_SYS_Mmap
                0x0003002c                HI_MPI_SYS_GetReg
                0x00030068                HI_MPI_SYS_SetReg
                0x00030098                HI_MPI_LOG_Read
                0x00030114                HI_MPI_SYS_GetVersion
                0x00030160                HI_MPI_SYS_GetBindbyDest
                0x0003026c                HI_MPI_SYS_UnBind
                0x0003037c                HI_MPI_SYS_Bind
                0x00030488                HI_MPI_SYS_Exit
                0x00030514                HI_MPI_SYS_Init
 .text          0x000306bc      0xf3c /home/liuboyuan/workspace/Hi3518_SDK_V1.0.8.0/mpp/lib/libmpi.a(mpi_vb.o)
                0x000306bc                HI_MPI_VB_GetBlkVirAddr
                0x000307fc                HI_MPI_VB_GetFileHandle
                0x0003085c                HI_MPI_VB_GetConf
                0x000308e0                HI_MPI_VB_Handle2PoolId
                0x00030974                HI_MPI_VB_Handle2PhysAddr
                0x00030a00                HI_MPI_VB_ReleaseBlock
                0x00030a88                HI_MPI_VB_DestroyPool
                0x00030b10                HI_MPI_VB_MunmapPool
                0x00030d14                HI_MPI_VB_MmapPool
                0x00030edc                HI_MPI_VB_SetConf
                0x00031220                HI_MPI_VB_Exit
                0x000312b0                HI_MPI_VB_Init
                0x0003138c                HI_MPI_VB_GetBlock
                0x000314e0                HI_MPI_VB_CreatePool
 .text          0x000315f8     0xaabc /home/liuboyuan/workspace/Hi3518_SDK_V1.0.8.0/mpp/lib/libmpi.a(mpi_venc.o)
                0x000315f8                VencVirt2User
                0x0003162c                VencVirt2Phy
                0x00031660                VencUser2Virt
                0x00031694                MPI_VENC_Exit
                0x000316fc                MPI_VENC_Init
                0x00031898                HI_MPI_VENC_SetH264eRefParam
                0x00031a88                HI_MPI_VENC_GetH264eRefParam
                0x00031c88                HI_MPI_VENC_EnableIDR
                0x00031e48                HI_MPI_VENC_SendFrame
                0x00031fa8                HI_MPI_VENC_VpssQuery
                0x00032108                HI_MPI_VENC_VpssSend
                0x00032268                HI_MPI_GRP_GetFileHandle
                0x00032374                HI_MPI_VENC_SetGrpFrmRate
                0x000324d4                HI_MPI_VENC_GetGrpFrmRate
                0x00032634                HI_MPI_VENC_SetGrpColor2Grey
                0x00032794                HI_MPI_VENC_GetGrpColor2Grey
                0x000328f4                HI_MPI_VENC_SetGrpCrop
                0x00032a54                HI_MPI_VENC_GetGrpCrop
                0x00032bb4                HI_MPI_VENC_GetColor2GreyConf
                0x00032d48                HI_MPI_VENC_CreateGroup
                0x00032f04                HI_MPI_VENC_DestroyGroup
                0x000330c4                HI_MPI_VENC_SetColor2GreyConf
                0x00033258                HI_MPI_VENC_GetCapability
                0x00033544                HI_MPI_VENC_InsertUserData
                0x00033808                HI_MPI_VENC_GetStreamBufInfo
                0x00033aa8                HI_MPI_VENC_GetStream
                0x00033e5c                HI_MPI_VENC_ReleaseStream
                0x0003415c                HI_MPI_VENC_SetMaxStreamCnt
                0x000343bc                HI_MPI_VENC_GetMaxStreamCnt
                0x00034658                HI_MPI_VENC_RequestIDR
                0x000348b0                HI_MPI_VENC_RequestIDRInst
                0x00034b08                HI_MPI_VENC_StartRecvPic
                0x00034d60                HI_MPI_VENC_StopRecvPic
                0x00034fb8                HI_MPI_VENC_Query
                0x00035258                HI_MPI_VENC_DestroyChn
                0x000354d4                HI_MPI_VENC_GetChnAttr
                0x000357c8                HI_MPI_VENC_SetChnAttr
                0x00035a88                HI_MPI_VENC_SetRcPara
                0x00035d28                HI_MPI_VENC_GetRcPara
                0x00035fc8                HI_MPI_VENC_GetFd
                0x00036210                HI_MPI_VENC_GetRoiCfg
                0x000364fc                HI_MPI_VENC_SetRoiCfg
                0x000367dc                HI_MPI_VENC_SetH264SliceSplit
                0x00036a7c                HI_MPI_VENC_GetH264SliceSplit
                0x00036d1c                HI_MPI_VENC_SetH264InterPred
                0x00036fbc                HI_MPI_VENC_GetH264InterPred
                0x0003725c                HI_MPI_VENC_SetH264IntraPred
                0x0003750c                HI_MPI_VENC_GetH264IntraPred
                0x000377bc                HI_MPI_VENC_SetH264Trans
                0x00037a6c                HI_MPI_VENC_GetH264Trans
                0x00037d0c                HI_MPI_VENC_SetH264Entropy
                0x00037fbc                HI_MPI_VENC_GetH264Entropy
                0x0003826c                HI_MPI_VENC_SetH264Poc
                0x0003851c                HI_MPI_VENC_GetH264Poc
                0x000387cc                HI_MPI_VENC_SetH264Dblk
                0x00038a7c                HI_MPI_VENC_CreateChn
                0x00038f08                HI_MPI_VENC_RegisterChn
                0x000391a4                HI_MPI_VENC_UnRegisterChn
                0x00039404                HI_MPI_VENC_EnableInterPskip
                0x00039670                HI_MPI_VENC_SetJpegSnapMode
                0x000398dc                HI_MPI_VENC_GetJpegSnapMode
                0x00039b8c                HI_MPI_VENC_StartRecvPicEx
                0x00039e2c                HI_MPI_VENC_GetH264Dblk
                0x0003a0dc                HI_MPI_VENC_SetH264RDO
                0x0003a38c                HI_MPI_VENC_GetH264RDO
                0x0003a63c                HI_MPI_VENC_SetH264Vui
                0x0003a8ec                HI_MPI_VENC_GetH264Vui
                0x0003ab9c                HI_MPI_VENC_SetJpegParam
                0x0003ae4c                HI_MPI_VENC_GetJpegParam
                0x0003b0ec                HI_MPI_VENC_SetMjpegParam
                0x0003b39c                HI_MPI_VENC_GetMjpegParam
                0x0003b648                HI_MPI_VENC_SetMpeg4Param
                0x0003b8f8                HI_MPI_VENC_GetMpeg4Param
                0x0003bb98                HI_MPI_VENC_SetH264eRefMode
                0x0003be04                HI_MPI_VENC_GetH264eRefMode
 .text          0x0003c0b4     0x501c /home/liuboyuan/workspace/Hi3518_SDK_V1.0.8.0/mpp/lib/libmpi.a(mpi_vi.o)
                0x0003c0b4                HI_MPI_VI_SetDevAntifogAttr
                0x0003c254                HI_MPI_VI_GetChnLuma
                0x0003c408                HI_MPI_VI_GetRotate
                0x0003c5bc                HI_MPI_VI_SetRotate
                0x0003c714                HI_MPI_VI_GetLDCAttr
                0x0003c8c4                HI_MPI_VI_SetLDCAttr
                0x0003ca74                HI_MPI_VI_GetExtChnAttr
                0x0003cc2c                HI_MPI_VI_SetExtChnAttr
                0x0003cde4                HI_MPI_VI_GetCSCAttr
                0x0003cf8c                HI_MPI_VI_SetCSCAttr
                0x0003d134                HI_MPI_VI_FlashTrigger
                0x0003d284                HI_MPI_VI_GetFlashConfig
                0x0003d430                HI_MPI_VI_SetFlashConfig
                0x0003d5dc                HI_MPI_VI_SetRegDelayTime
                0x0003d6cc                HI_MPI_VI_Query
                0x0003d87c                HI_MPI_VI_GetFd
                0x0003d9c0                HI_MPI_VI_DisableUserPic
                0x0003db10                HI_MPI_VI_EnableUserPic
                0x0003dc60                HI_MPI_VI_SetUserPic
                0x0003de10                HI_MPI_VI_GetDevAttrEx
                0x0003dfbc                HI_MPI_VI_SetDevAttrEx
                0x0003e164                HI_MPI_VI_GetChnBind
                0x0003e318                HI_MPI_VI_ChnUnBind
                0x0003e468                HI_MPI_VI_ChnBind
                0x0003e618                HI_MPI_VI_DisableCascadeChn
                0x0003e768                HI_MPI_VI_EnableCascadeChn
                0x0003e8b4                HI_MPI_VI_DisableCascade
                0x0003e9fc                HI_MPI_VI_EnableCascade
                0x0003eb40                HI_MPI_VI_DisableVbi
                0x0003ecec                HI_MPI_VI_EnableVbi
                0x0003ee98                HI_MPI_VI_GetVbiAttr
                0x0003f0b8                HI_MPI_VI_SetVbiAttr
                0x0003f2d8                HI_MPI_VI_GetFrameDepth
                0x0003f488                HI_MPI_VI_SetFrameDepth
                0x0003f5e0                HI_MPI_VI_ReleaseFrame
                0x0003f790                HI_MPI_VI_GetFrameTimeOut
                0x0003f94c                HI_MPI_VI_GetFrame
                0x0003fafc                HI_MPI_VI_DisableChnInterrupt
                0x0003fc4c                HI_MPI_VI_EnableChnInterrupt
                0x0003fd9c                HI_MPI_VI_DisableUserPicRegion
                0x0003fee8                HI_MPI_VI_EnableUserPicRegion
                0x00040038                HI_MPI_VI_DisableChn
                0x00040188                HI_MPI_VI_EnableChn
                0x000402d8                HI_MPI_VI_ClearChnMinorAttr
                0x0004042c                HI_MPI_VI_GetChnMinorAttr
                0x000405d8                HI_MPI_VI_SetChnMinorAttr
                0x0004078c                HI_MPI_VI_GetChnAttr
                0x00040940                HI_MPI_VI_SetChnAttr
                0x00040aec                HI_MPI_VI_DisableDev
                0x00040c34                HI_MPI_VI_EnableDev
                0x00040d78                HI_MPI_VI_GetDevAttr
                0x00040f24                HI_MPI_VI_SetDevAttr
 .text          0x000410d0     0x5354 /home/liuboyuan/workspace/Hi3518_SDK_V1.0.8.0/mpp/lib/libmpi.a(mpi_vpss.o)
                0x000410d0                HI_MPI_VPSS_GetDelay
                0x0004127c                HI_MPI_VPSS_SetDelay
                0x000413d8                HI_MPI_VPSS_GetImageQualityCfg
                0x0004158c                HI_MPI_VPSS_SetImageQualityCfg
                0x00041740                HI_MPI_VPSS_GetExtChnAttr
                0x00041960                HI_MPI_VPSS_SetExtChnAttr
                0x00041b80                HI_MPI_VPSS_GetGrpFrameRate
                0x00041d34                HI_MPI_VPSS_SetGrpFrameRate
                0x00041eec                HI_MPI_VPSS_GetGrpSizer
                0x000420a0                HI_MPI_VPSS_SetGrpSizer
                0x00042258                HI_MPI_VPSS_GetGrpField
                0x0004240c                HI_MPI_VPSS_SetGrpField
                0x00042568                HI_MPI_VPSS_GetChnField
                0x00042788                HI_MPI_VPSS_SetChnField
                0x00042950                HI_MPI_VPSS_GetPreScale
                0x00042b08                HI_MPI_VPSS_SetPreScale
                0x00042cbc                HI_MPI_VPSS_GetChnSpParam
                0x00042edc                HI_MPI_VPSS_SetChnSpParam
                0x000430fc                HI_MPI_VPSS_GetChnNrParam
                0x0004331c                HI_MPI_VPSS_SetChnNrParam
                0x0004353c                HI_MPI_VPSS_GetDepth
                0x0004375c                HI_MPI_VPSS_SetDepth
                0x00043920                HI_MPI_VPSS_GetChnMode
                0x00043b40                HI_MPI_VPSS_SetChnMode
                0x00043d60                HI_MPI_VPSS_GetGrpParam
                0x00043f14                HI_MPI_VPSS_SetGrpParam
                0x000440cc                HI_MPI_VPSS_SetChnAttr
                0x000442ec                HI_MPI_VPSS_GetChnAttr
                0x0004450c                HI_MPI_VPSS_UserReleaseGrpFrame
                0x000446c0                HI_MPI_VPSS_UserGetGrpFrame
                0x00044880                HI_MPI_VPSS_UserReleaseFrame
                0x00044aa0                HI_MPI_VPSS_UserGetFrame
                0x00044cc0                HI_MPI_VPSS_UserSendFrameTimeout
                0x00044e90                HI_MPI_VPSS_UserSendFrame
                0x00045040                HI_MPI_VPSS_GetCropCfg
                0x000451f0                HI_MPI_VPSS_SetCropCfg
                0x000453a0                HI_MPI_VPSS_DisableBackupFrame
                0x000454f0                HI_MPI_VPSS_EnableBackupFrame
                0x00045640                HI_MPI_VPSS_DisableChn
                0x000457f8                HI_MPI_VPSS_EnableChn
                0x000459b0                HI_MPI_VPSS_ResetGrp
                0x00045b04                HI_MPI_VPSS_StopGrp
                0x00045c54                HI_MPI_VPSS_StartGrp
                0x00045da8                HI_MPI_VPSS_SetGrpAttr
                0x00045f60                HI_MPI_VPSS_GetGrpAttr
                0x00046118                HI_MPI_VPSS_DestroyGrp
                0x0004626c                HI_MPI_VPSS_CreateGrp
 .text          0x00046424     0x196c /home/liuboyuan/workspace/Hi3518_SDK_V1.0.8.0/mpp/lib/libmpi.a(sys_bind.o)
                0x00046424                SysGetIdxByDevChn
                0x00046430                SYS_BIND_Exit
                0x000464c0                SYS_BIND_Init
                0x00046530                SysGetDevChnByIdx
                0x000465d0                SysCheckBindChn
                0x000466b4                SysUnRegisterBinder
                0x0004684c                SYS_BIND_UnRegisterReceiver
                0x00046858                SYS_BIND_UnRegisterSender
                0x00046864                SYS_GetBindbyDest
                0x00046970                SysGetBinderbySrc
                0x00046aa4                SYS_BIND_ResetData
                0x00046e1c                SYS_BIND_SendData
                0x00047208                SYS_GetBindbySrc
                0x00047258                SYS_UnBind
                0x000475b8                SYS_Bind
                0x00047900                SysRegisterBinder
                0x00047d70                SYS_BIND_RegisterReceiver
                0x00047d80                SYS_BIND_RegisterSender
 .text          0x00047d90     0x3638 /home/liuboyuan/workspace/Hi3518_SDK_V1.0.8.0/mpp/lib/libmpi.a(mpi_adec.o)
                0x00047d90                HI_MPI_ADEC_SetChnAttr
                0x00047d98                HI_MPI_ADEC_GetChnAttr
                0x00047da0                AdecCheckAttr
                0x00048030                HI_MPI_ADEC_GetFrmInfo
                0x0004825c                HI_MPI_ADEC_UnRegisterDecoder
                0x00048314                HI_MPI_ADEC_ReleaseFrame
                0x00048618                HI_MPI_ADEC_GetFrame
                0x00048958                ADEC_SendAoProc
                0x00048a88                HI_MPI_ADEC_RegeisterDecoder
                0x00048d14                MPI_ADEC_SendStream
                0x00049b54                HI_MPI_ADEC_SendStream
                0x00049c54                MPI_ADEC_ClearChnBuf
                0x00049f14                HI_MPI_ADEC_ClearChnBuf
                0x00049f90                MPI_ADEC_DestroyChn
                0x0004a534                HI_MPI_ADEC_DestroyChn
                0x0004a5b0                MPI_ADEC_CreateChn
                0x0004afcc                HI_MPI_ADEC_CreateChn
                0x0004b0bc                MPI_ADEC_Exit
                0x0004b15c                MPI_ADEC_Init
 .text          0x0004b3c8     0x3714 /home/liuboyuan/workspace/Hi3518_SDK_V1.0.8.0/mpp/lib/libmpi.a(mpi_aenc.o)
                0x0004b3c8                MPI_AENC_DestroyGetFrmProc
                0x0004b404                MPI_AENC_CreateGetFrmProc
                0x0004b474                AencCheckFrame
                0x0004b560                MPI_AENC_ReleaseFrame
                0x0004b73c                HI_MPI_AENC_GetFd
                0x0004b8a4                HI_MPI_AENC_ReleaseStream
                0x0004baf0                HI_MPI_AENC_GetStream
                0x0004c010                MPI_AENC_GetFrame
                0x0004c3bc                AencCheckAttr
                0x0004c54c                HI_MPI_AENC_UnRegisterEncoder
                0x0004c608                HI_MPI_AENC_RegeisterEncoder
                0x0004c910                MPI_AENC_DestroyChn
                0x0004cab0                HI_MPI_AENC_DestroyChn
                0x0004cd84                MPI_AENC_CreateChn
                0x0004d778                HI_MPI_AENC_CreateChn
                0x0004d97c                MPI_AENC_Exit
                0x0004da14                MPI_AENC_Init
                0x0004db80                HI_MPI_AENC_SendFrame
                0x0004e988                MPI_AENC_ChnGetFrmProc
 .text          0x0004eadc     0x3ee8 /home/liuboyuan/workspace/Hi3518_SDK_V1.0.8.0/mpp/lib/libmpi.a(mpi_ai.o)
                0x0004eadc                MPI_AI_Exit
                0x0004efcc                MPI_AI_DisableReSmp
                0x0004f10c                MPI_AI_EnableReSmp
                0x0004f4bc                MPI_AI_Init
                0x0004f590                HI_MPI_AI_Enable
                0x0004f6e8                HI_MPI_AI_Disable
                0x0004f818                HI_MPI_AI_EnableChn
                0x0004faa4                HI_MPI_AI_GetFrame
                0x000505a0                HI_MPI_AI_SetPubAttr
                0x000506d8                HI_MPI_AI_GetPubAttr
                0x0005080c                HI_MPI_AI_EnableAec
                0x00050a54                HI_MPI_AI_DisableAec
                0x00050bd0                HI_MPI_AI_EnableReSmp
                0x00051264                HI_MPI_AI_ReleaseFrame
                0x00051460                HI_MPI_AI_SetChnParam
                0x000515f8                HI_MPI_AI_GetChnParam
                0x00051790                HI_MPI_AI_GetFd
                0x00051908                HI_MPI_AI_GetFileHandle
                0x00051a24                HI_MPI_AI_ClrPubAttr
                0x00051b44                HI_MPI_AI_DisableAnr
                0x00051de4                HI_MPI_AI_EnableAnr
                0x00052330                HI_MPI_AI_DisableReSmp
                0x000525c4                HI_MPI_AI_DisableChn
 .text          0x000529c4     0x29ac /home/liuboyuan/workspace/Hi3518_SDK_V1.0.8.0/mpp/lib/libmpi.a(mpi_ao.o)
                0x000529c4                MPI_AO_DisableReSmp
                0x00052a0c                MPI_AO_EnableReSmp
                0x00052ad0                MPI_AO_Exit
                0x00052b20                MPI_AO_Init
                0x00052cdc                HI_MPI_AO_SendFrame
                0x0005315c                MPI_AO_ReceiveFrm
                0x00053218                HI_MPI_AO_EnableChn
                0x000533e4                HI_MPI_AO_SetPubAttr
                0x0005355c                HI_MPI_AO_GetPubAttr
                0x000536dc                MPI_AO_CheckReSmp
                0x00053a6c                HI_MPI_AO_Enable
                0x00053b8c                HI_MPI_AO_Disable
                0x00053ca8                HI_MPI_AO_PauseChn
                0x00053e20                HI_MPI_AO_ResumeChn
                0x00053f9c                HI_MPI_AO_EnableReSmp
                0x000543a0                HI_MPI_AO_ClearChnBuf
                0x0005451c                HI_MPI_AO_QueryChnStat
                0x000546f4                HI_MPI_AO_GetFd
                0x00054868                HI_MPI_AO_GetFileHandle
                0x00054980                HI_MPI_AO_ClrPubAttr
                0x00054aa0                HI_MPI_AO_SetVolume
                0x00054c24                HI_MPI_AO_GetVolume
                0x00054e00                HI_MPI_AO_DisableReSmp
                0x00055090                HI_MPI_AO_DisableChn
 .text          0x00055370      0x29c /home/liuboyuan/workspace/Hi3518_SDK_V1.0.8.0/mpp/lib/libmpi.a(audio_comm.o)
                0x00055370                audio_check_mem_open
                0x000553c8                audio_free
                0x00055488                audio_alloc
                0x0005557c                audio_memunmap
                0x000555a0                audio_memmap
 .text          0x0005560c     0x25bc /home/liuboyuan/workspace/Hi3518_SDK_V1.0.8.0/mpp/lib/libmpi.a(audio_voice_adp.o)
                0x0005560c                OpenLPCMEncoder
                0x00055614                CloseLPCMEncoder
                0x0005561c                OpenLPCMDecoder
                0x00055624                CloseLPCMDecoder
                0x0005562c                GetFrmInfo
                0x00055634                HI_MPI_ADEC_VoiceInit
                0x00055878                HI_MPI_AENC_VoiceInit
                0x00055abc                CloseG726Decoder
                0x00055b40                CloseADPCMDecoder
                0x00055bc8                CloseG711UDecoder
                0x00055c4c                CloseG711ADecoder
                0x00055cd4                DecodeG726Frm
                0x00055f18                DecodeADPCMFrm
                0x0005615c                DecodeG711UFrm
                0x0005639c                DecodeG711AFrm
                0x000565e0                OpenG726Decoder
                0x00056780                OpenG711UDecoder
                0x00056880                OpenG711ADecoder
                0x00056930                OpenADPCMDecoder
                0x00056a9c                DecodeLPCMFrm
                0x00056c58                EncodeLPCMFrm
                0x00056d6c                CloseG726Encoder
                0x00056df4                OpenG726Encoder
                0x00056f94                CloseADPCMEncoder
                0x0005701c                OpenADPCMEncoder
                0x00057180                CloseG711UEncoder
                0x00057204                OpenG711UEncoder
                0x000572fc                CloseG711AEncoder
                0x00057380                OpenG711AEncoder
                0x00057430                EncodeG726Frm
                0x000575e8                EncodeADPCMFrm
                0x00057870                EncodeG711UFrm
                0x00057a1c                EncodeG711AFrm
 .text          0x00057bc8     0x6b9c /home/liuboyuan/workspace/Hi3518_SDK_V1.0.8.0/mpp/lib/libisp.a(mpi_isp.o)
                0x00057bc8                HI_MPI_ISP_SetColorTemp
                0x00057bd0                HI_MPI_ISP_SetFocusType
                0x00057bd8                HI_MPI_ISP_GetFocusType
                0x00057be8                HI_MPI_ISP_SetAFAttr
                0x00057bf0                HI_MPI_ISP_SetMFAttr
                0x00057bf8                HI_MPI_ISP_GetMFAttr
                0x00057c00                HI_MPI_ISP_ManualFocusMove
                0x00057c08                HI_MPI_ISP_SetIrisType
                0x00057c10                HI_MPI_ISP_GetIrisType
                0x00057c20                HI_MPI_ISP_SetMIAttr
                0x00057c28                HI_MPI_ISP_GetMIAttr
                0x00057c30                HI_MPI_ISP_GetAFAttr
                0x00057c90                HI_MPI_ISP_GetBlackLevelAttr
                0x00057d00                HI_MPI_ISP_GetDebug
                0x00057e68                HI_MPI_ISP_GetShadingTable
                0x00057ff8                HI_MPI_ISP_GetCCM
                0x00058218                HI_MPI_ISP_GetMWBAttr
                0x000582b0                HI_MPI_ISP_GetAntiFogAttr
                0x0005831c                HI_MPI_ISP_GetAIAttr
                0x0005840c                HI_MPI_ISP_GetColorTemp
                0x0005845c                HI_MPI_ISP_GetLightSource
                0x000585c8                HI_MPI_ISP_GetAdvAWBAttr
                0x00058654                HI_MPI_ISP_GetAWBAlgType
                0x000586b0                HI_MPI_ISP_GetWBType
                0x00058704                HI_MPI_ISP_GetInputTiming
                0x000587e8                HI_MPI_ISP_GetExtRegAddr
                0x000587f8                HI_MPI_ISP_GetMEAttrEx
                0x000588dc                HI_MPI_ISP_GetMEAttr
                0x000589c8                HI_MPI_ISP_SetModuleControl
                0x000589f0                HI_MPI_ISP_GetWBStaInfo
                0x00058ca8                HI_MPI_ISP_QueryInnerStateInfoEx
                0x00058f38                HI_MPI_ISP_QueryInnerStateInfo
                0x000591a4                HI_MPI_ISP_GetModuleControl
                0x000591f4                HI_MPI_ISP_SetSaturation
                0x00059210                HI_MPI_ISP_SetAntiFalseColorAttr
                0x0005925c                HI_MPI_ISP_SetSlowFrameRate
                0x000592a8                HI_MPI_ISP_SetShadingAttr
                0x00059328                HI_MPI_ISP_GetAEAttrEx
                0x00059644                HI_MPI_ISP_GetAEAttr
                0x00059928                HI_MPI_ISP_GetExposureType
                0x0005998c                HI_MPI_ISP_GetAWBAttr
                0x00059cbc                HI_MPI_ISP_GetSaturation
                0x00059d0c                HI_MPI_ISP_GetSaturationAttr
                0x00059df8                HI_MPI_ISP_GetAntiFlickerAttr
                0x00059e6c                HI_MPI_ISP_GetSharpenAttr
                0x0005a008                HI_MPI_ISP_GetAntiFalseColorAttr
                0x0005a058                HI_MPI_ISP_GetGammaAttr
                0x0005a0ac                HI_MPI_ISP_GetDenoiseAttr
                0x0005a1bc                HI_MPI_ISP_GetShadingAttr
                0x0005a210                HI_MPI_ISP_GetDISInfo
                0x0005a270                HI_MPI_ISP_GetDISAttr
                0x0005a2c8                HI_MPI_ISP_GetDRCAttr
                0x0005a3b4                HI_MPI_ISP_GetDemosaicAttr
                0x0005a590                HI_MPI_ISP_GetSlowFrameRate
                0x0005a5e0                HI_MPI_ISP_GetCrosstalkAttr
                0x0005a6e4                HI_MPI_ISP_GetImageAttr
                0x0005a798                HI_MPI_ISP_SetDISAttr
                0x0005a800                HI_MPI_ISP_FreezeFmw
                0x0005a838                HI_MPI_ISP_GetFocusStaInfo
                0x0005ab9c                HI_MPI_ISP_GetExpStaInfo
                0x0005aee0                HI_MPI_ISP_GetDefectPixelAttr
                0x0005b0d4                HI_MPI_ISP_SetGammaAttr
                0x0005b16c                HI_MPI_ISP_SetGammaFETable
                0x0005b26c                HI_MPI_ISP_GetGammaFETable
                0x0005b364                HI_MPI_ISP_GetGammaTable
                0x0005b458                HI_MPI_ISP_SetGammaTable
                0x0005b60c                HI_MPI_ISP_SetAIAttr
                0x0005b754                HI_MPI_ISP_SetSaturationAttr
                0x0005b8c8                HI_MPI_ISP_SetExposureType
                0x0005b9a4                HI_MPI_ISP_SetWBType
                0x0005ba44                HI_MPI_ISP_SetDenoiseAttr
                0x0005bc28                HI_MPI_ISP_SetSharpenAttr
                0x0005bf40                HI_MPI_ISP_SetExpStaInfo
                0x0005c0d0                HI_MPI_ISP_SetAntiFlickerAttr
                0x0005c17c                HI_MPI_ISP_SetAWBAlgType
                0x0005c1e4                HI_MPI_ISP_SetAntiFogAttr
                0x0005c2ac                HI_MPI_ISP_SetInputTiming
                0x0005c4d8                HI_MPI_ISP_SetBlackLevelAttr
                0x0005c554                HI_MPI_ISP_SetDebug
                0x0005c680                HI_MPI_ISP_SetMWBAttr
                0x0005c6f8                HI_MPI_ISP_SetDemosaicAttr
                0x0005c9d4                HI_MPI_ISP_SetDRCAttr
                0x0005cafc                HI_MPI_ISP_SetFocusStaInfo
                0x0005cb6c                HI_MPI_ISP_SetAWBAttr
                0x0005cef4                HI_MPI_ISP_SetShadingTable
                0x0005d0b8                HI_MPI_ISP_SetWBStaInfo
                0x0005d1e4                HI_MPI_ISP_SetCCM
                0x0005d45c                HI_MPI_ISP_SetLightSource
                0x0005d664                HI_MPI_ISP_SetImageAttr
                0x0005d7f4                HI_MPI_ISP_SetCrosstalkAttr
                0x0005d9c4                HI_MPI_ISP_SetAEAttr
                0x0005dde0                HI_MPI_ISP_SetAdvAWBAttr
                0x0005deb4                HI_MPI_ISP_SetDefectPixelAttr
                0x0005e10c                HI_MPI_ISP_SetAEAttrEx
                0x0005e524                HI_MPI_ISP_SetMEAttrEx
                0x0005e640                HI_MPI_ISP_SetMEAttr
 .text          0x0005e764      0xa18 /home/liuboyuan/workspace/Hi3518_SDK_V1.0.8.0/mpp/lib/libisp.a(mpi_isp_entry.o)
                0x0005e764                HI_MPI_ISP_SensorRegCallBack
                0x0005e898                HI_MPI_ISP_GetVDTimeOut
                0x0005e948                HI_MPI_ISP_SSPWrite
                0x0005eba0                HI_MPI_ISP_I2cWrite
                0x0005ec20                HI_MPI_ISP_GetCfg
                0x0005ec68                HI_MPI_ISP_SetCfg
                0x0005ec78                HI_MPI_ISP_Exit
                0x0005ecd4                HI_MPI_ISP_Run
                0x0005f014                HI_MPI_ISP_Init
 .text          0x0005f17c     0x1f00 /home/liuboyuan/workspace/Hi3518_SDK_V1.0.8.0/mpp/lib/libisp.a(apical_color_management.o)
                0x0005f17c                CCM_alpha_blending
                0x0005f59c                color_management_initialize
                0x0005f64c                color_correction_matrix_set
                0x0005f770                white_balance_gain_set
                0x0005f794                color_wb_matrix_set
                0x0005f84c                color_matrix_kernel_update
                0x0005fdc4                color_matrix_update
                0x00060374                color_matrix_recalculate
 .text          0x0006107c     0x14bc /home/liuboyuan/workspace/Hi3518_SDK_V1.0.8.0/mpp/lib/libisp.a(apical_isp_defaults.o)
                0x0006107c                apical_isp_init_ae_weight
                0x00061640                apical_isp_defaults
                0x00062438                apical_sensor_mode_initialize
 .text          0x00062538     0x20cc /home/liuboyuan/workspace/Hi3518_SDK_V1.0.8.0/mpp/lib/libisp.a(apical_isp_system_control.o)
                0x00062588                apical_isp_sys_ctrl_if_fend_upd
                0x00062590                apical_isp_sys_ctrl_initialize
                0x000625a0                apical_ext_sys_default
                0x00063a14                apical_isp_inner_state_info_update
                0x00063c10                apical_isp_inner_state_info_init
                0x00063cd8                apical_isp_sys_ctrl_run_isp
 .text          0x00064604      0xaf0 /home/liuboyuan/workspace/Hi3518_SDK_V1.0.8.0/mpp/lib/libisp.a(apical_noise_reduction.o)
                0x00064648                calculate_nr_lut_value
                0x00064904                nr_initialize
                0x00064bb0                noise_profile_set
                0x00064be0                nr_thresh_calculate
 .text          0x000650f4      0x6a4 /home/liuboyuan/workspace/Hi3518_SDK_V1.0.8.0/mpp/lib/libisp.a(apical_sharpening.o)
                0x000650f4                sharpening_initialize
                0x0006518c                sharpening_update
 .text          0x00065798      0x3b4 /home/liuboyuan/workspace/Hi3518_SDK_V1.0.8.0/mpp/lib/libisp.a(hi_regwr.o)
                0x00065798                ISP_GetExtRegAddr
                0x00065804                ISP_Munmap
                0x00065878                ISP_Mmap
                0x000658e4                IO_WRITE32
                0x0006594c                IO_READ32
                0x000659b0                IO_WRITE16
                0x00065a10                IO_READ16
                0x00065a3c                IO_WRITE8
                0x00065aec                IO_READ8
 .text          0x00065b4c      0xd24 /home/liuboyuan/workspace/Hi3518_SDK_V1.0.8.0/mpp/lib/libisp.a(hisi_isp_debug.o)
                0x00065b4c                hisi_isp_sys_debug_ctrl_init
                0x00065b50                hisi_isp_AE_debug_ctrl_init
                0x00065b74                hisi_isp_AWB_debug_ctrl_init
                0x00065b98                hisi_isp_other_debug_ctrl_init
                0x00065b9c                hisi_isp_sys_debug_ctrl_update
                0x00065ba0                hisi_isp_other_debug_ctrl_update
                0x00065ba4                hisi_isp_sys_cfg_update
                0x00065ba8                hisi_isp_other_cfg_update
                0x00065bac                hisi_isp_sys_debug_write
                0x00065bb4                hisi_isp_AE_debug_write
                0x00065c88                hisi_isp_AWB_debug_write
                0x00065d44                hisi_isp_other_debug_write
                0x00065d4c                hisi_isp_debug_write
                0x00065d64                hisi_isp_debug_ctrl_init
                0x00065f24                hisi_isp_AE_cfg_update
                0x000662f0                hisi_isp_AWB_debug_ctrl_update
                0x000663c8                hisi_isp_AE_debug_ctrl_update
                0x000664a0                hisi_isp_debug_ctrl_update
                0x000664e8                hisi_isp_AWB_cfg_update
                0x0006684c                hisi_isp_debug_update
 .text          0x00066870     0x141c /home/liuboyuan/workspace/Hi3518_SDK_V1.0.8.0/mpp/lib/libisp.a(hisi_isp_proc.o)
                0x00066870                hisi_isp_proc_exit
                0x000669c8                hisi_isp_proc_write
                0x00067b40                hisi_isp_proc_init
 .text          0x00067c8c      0x368 /home/liuboyuan/workspace/Hi3518_SDK_V1.0.8.0/mpp/lib/libisp.a(math_utils.o)
                0x00067c8c                sqrt16
                0x00067d10                log16
                0x00067e54                math_log2
                0x00067f8c                math_exp2
                0x00067fcc                solving_lin_equation_a
                0x00067fe8                solving_lin_equation_b
 .text          0x00067ff4     0x439c /home/liuboyuan/workspace/Hi3518_SDK_V1.0.8.0/mpp/lib/libisp.a(apical_auto_wb.o)
                0x00067ff4                awb_locus_track
                0x00067ff8                auto_wb_para_set
                0x0006802c                sqrt32
                0x0006817c                AwbCompareWeight
                0x0006819c                auto_wb_matrix_init
                0x00068444                AwbWbMatrixNormalize
                0x00068658                AwbCoefClip
                0x0006887c                auto_wb_init
                0x00068940                auto_wb_matrix_calculate
 .text          0x0006c390     0x140c /home/liuboyuan/workspace/Hi3518_SDK_V1.0.8.0/mpp/lib/libisp.a(apical_isp.o)
                0x0006c390                apical_isp_exposure_ratio_set
                0x0006c394                apical_isp_min_integration_time_set
                0x0006c3a0                apical_isp_max_integration_time_set
                0x0006c3ac                apical_isp_max_analog_gain_set
                0x0006c3b8                apical_isp_max_digital_gain_set
                0x0006c3c4                apical_isp_max_isp_digital_gain_set
                0x0006c3d0                apical_isp_max_system_gain_set
                0x0006c3dc                apical_isp_antiflicker_mode_set
                0x0006c3e4                apical_isp_min_analog_gain_set
                0x0006c3f0                apical_isp_min_digital_gain_set
                0x0006c3fc                apical_isp_ae_mode_set
                0x0006c410                apical_isp_gain_thresh_set
                0x0006c418                apical_isp_manual_exoposure_set
                0x0006c438                apical_isp_exposure_set
                0x0006c440                apical_isp_exposure_quant_set
                0x0006c448                apical_isp_exposure_hist_err_max_set
                0x0006c450                apical_isp_manual_iridix_set
                0x0006c470                apical_isp_iridix_strength_target_set
                0x0006c478                apical_isp_temper_threshold_target_set
                0x0006c480                apical_isp_sinter_threshold_target_set
                0x0006c488                apical_isp_sinter_threshold_max_set
                0x0006c490                apical_isp_freeze_isp_set
                0x0006c4b0                apical_isp_slow_frame_rate_times_set
                0x0006c4cc                apical_isp_flicker_set
                0x0006c4dc                apical_isp_enable_manual_saturation_set
                0x0006c4e4                apical_isp_saturation_set
                0x0006c4ec                apical_isp_enable_awb_set
                0x0006c4f4                apical_isp_awb_pos_set
                0x0006c4fc                apical_isp_awb_ref_temp_set
                0x0006c50c                apical_isp_awb_thresh_set
                0x0006c528                apical_isp_awb_strength_set
                0x0006c534                apical_isp_awb_zones_set
                0x0006c53c                apical_isp_awb_sum_set
                0x0006c560                apical_isp_enable_sharpening_set
                0x0006c568                apical_isp_enable_manual_sharpening_set
                0x0006c570                apical_isp_sharpening_target_set
                0x0006c578                apical_isp_sharpening_ud_target_set
                0x0006c580                apical_isp_sharpening_min_set
                0x0006c588                apical_isp_set_for_low_light
                0x0006c598                apical_isp_awb_locus_tracking_set
                0x0006c5a0                apical_isp_awb_hi_temp_set
                0x0006c5b0                apical_isp_awb_lo_temp_set
                0x0006c5c0                apical_isp_awb_shift_mul_set
                0x0006c5c8                apical_isp_ae_compensation_set
                0x0006c5d8                apical_isp_sensor_wdr_enable_set
                0x0006c5e8                apical_isp_ae_band0_target_factor_value_set
                0x0006c5f8                apical_isp_ae_band1_target_factor_value_set
                0x0006c608                apical_isp_ae_band2_target_factor_value_set
                0x0006c618                apical_isp_ae_band3_target_factor_value_set
                0x0006c628                apical_isp_ae_band4_target_factor_value_set
                0x0006c638                apical_isp_ae_sensor_frame_end_update_value_set
                0x0006c648                apical_isp_ae_bypass_value_set
                0x0006c658                apical_isp_defect_pixel_threshold_set
                0x0006c660                apical_isp_defect_pixel_trigger_time_set
                0x0006c66c                apical_isp_awb_type_set
                0x0006c674                apical_isp_antifog_set
                0x0006c67c                apical_isp_new_antifog_set
                0x0006c684                apical_isp_new_antifog_black_percentage_set
                0x0006c68c                apical_isp_new_antifog_white_percentage_set
                0x0006c694                apical_isp_new_antifog_black_threshold_set
                0x0006c69c                apical_isp_new_antifog_white_threshold_set
                0x0006c6a4                apical_isp_new_antifog_strength_set
                0x0006c6ac                set_for_low_light
                0x0006c6bc                apical_isp_if_fend_upd
                0x0006c844                expsure_pregamma_calculate
                0x0006ca1c                apical_isp_ccm_set
                0x0006ca24                apical_isp_fps_set
                0x0006ca70                apical_isp_pixel_calibration_reset
                0x0006ca7c                apical_isp_pixel_calibration_run
                0x0006ca88                apical_isp_run
                0x0006d480                apical_isp_initialize
 .text          0x0006d79c      0x8fc /home/liuboyuan/workspace/Hi3518_SDK_V1.0.8.0/mpp/lib/libisp.a(apical_new_antifog.o)
                0x0006d79c                HI_MPI_ISP_SetDevAntifogAttr
                0x0006d814                new_antifog_initialize
                0x0006d914                new_antifog
 .text          0x0006e098      0x478 /home/liuboyuan/workspace/Hi3518_SDK_V1.0.8.0/mpp/lib/libisp.a(apical_pixel_calibration.o)
                0x0006e1b4                pixel_calibration_initialize
                0x0006e248                pixel_calibration_reset
                0x0006e264                pixel_calibration_run
 .text          0x0006e510      0x88c /home/liuboyuan/workspace/Hi3518_SDK_V1.0.8.0/mpp/lib/libisp.a(apical_pregamma.o)
                0x0006e510                pregamma_initialize
                0x0006e678                pregamma_ar0331_initialize
                0x0006e840                generic_gamma_node_calculate
                0x0006eadc                aptina_generic_gamma_curve_apply
                0x0006eb7c                exposure_gamma_calculate
                0x0006ebb0                gamma_FE_initialize_m034
                0x0006eca4                gamma_FE_initialize_imx104
 .text          0x0006ed9c     0x41c8 /home/liuboyuan/workspace/Hi3518_SDK_V1.0.8.0/mpp/lib/libisp.a(awb_fw.o)
                0x0006ed9c                abs_int
                0x0006edac                awb_get_line_segment
                0x0006f220                compute_awb_stat
                0x0006f370                update_aec_history
                0x0006f42c                est_wb_from_green_point
                0x0006f550                awb_decision_by_skin
                0x0006fc4c                is_outdoor_light
                0x0006fc5c                is_indoor_light
                0x0006fc84                is_F_light
                0x0006fc98                is_A_light
                0x0006fcac                correct_gain_ratio_limit
                0x0006fd58                rgb_gain_value_proc
                0x0006ff10                calc_awb_gain_from_filename
                0x0006ff14                print_null
                0x0006ff20                adjust_rg_bg_by_history
                0x000706ac                update_awb_history
                0x00070894                awb_exit
                0x000708c8                awb_exec
                0x00071cc8                awb_init
 .text          0x00072f64      0x2a4 /home/liuboyuan/workspace/Hi3518_SDK_V1.0.8.0/mpp/lib/libisp.a(Apical_antifog.o)
                0x00072f64                antifog_initialize
                0x00072f94                antifog
 .text          0x00073208      0x8ac /home/liuboyuan/workspace/Hi3518_SDK_V1.0.8.0/mpp/lib/libisp.a(apical_auto_exposure.o)
                0x00073208                auto_exposure_step_calculate
                0x00073378                auto_exposure_increment_calculate
                0x00073874                auto_exposure_initialize
 .text          0x00073ab4      0xef4 /home/liuboyuan/workspace/Hi3518_SDK_V1.0.8.0/mpp/lib/libisp.a(apical_exposure_cmos.o)
                0x00073ab4                exposure_cmos_initialize
                0x00073b48                exposure_limit_calculate
                0x00073c34                exposure_cmos_fps_set
                0x00073ca0                exposure_cmos_calculate
 .text          0x000749a8      0x220 /home/liuboyuan/workspace/Hi3518_SDK_V1.0.8.0/mpp/lib/libisp.a(apical_gamma_init.o)
                0x000749a8                gamma_initialize
                0x00074ad0                gamma_initialize_wdr
 .text          0x00074bc8       0xfc /home/liuboyuan/workspace/Hi3518_SDK_V1.0.8.0/mpp/lib/libisp.a(apical_iridix_control.o)
                0x00074bc8                iridix_control_initialize
                0x00074be0                iridix_control_strength_calculate
 .text          0x00074cc4      0xac0 /home/liuboyuan/workspace/Hi3518_SDK_V1.0.8.0/mpp/lib/libisp.a(apical_iris_control.o)
                0x00074cc4                iris_calibration_initialize
                0x00074d28                iris_update
                0x00074e0c                iris_control_initialize
                0x00074efc                iris_control_calculate
                0x000752c8                iris_calibration_run
 .text          0x00075784      0x76c /home/liuboyuan/workspace/Hi3518_SDK_V1.0.8.0/mpp/lib/libsns_imx122.a(imx122_cmos.o)
                0x00075b9c                cmos_get_isp_speical_alg
                0x00075ba4                sensor_mode_set
                0x00075cd0                sensor_register_callback
 .text          0x00075ef0     0x1f28 /home/liuboyuan/workspace/Hi3518_SDK_V1.0.8.0/mpp/lib/libsns_imx122.a(imx122_sensor_ctl.o)
                0x00075ef0                sensor_prog
                0x00075ef4                setup_sensor
                0x00075ef8                sony_sensor_read_packet
                0x00075f54                sensor_read_register
                0x00075f64                sony_sensor_write_packet
                0x00075fc0                sensor_write_register
                0x00075fd8                sensor_init
 .text          0x00077e18      0xe18 /home/liuboyuan/workspace/Hi3518_SDK_V1.0.8.0/mpp/lib/libVoiceEngine.a(voice.o)
                0x00077e18                HI_VOICE_GetVersion
                0x00077e60                HI_VOICE_DecodeFrame
                0x000781ac                HI_VOICE_EncodeFrame
                0x000786e8                HI_VOICE_TransCodeFrame
                0x000787d4                HI_VOICE_DecReset
                0x000789a8                HI_VOICE_EncReset
                0x00078b7c                HI_VOICE_TransCodeReset
 .text          0x00078c30      0x720 /home/liuboyuan/workspace/Hi3518_SDK_V1.0.8.0/mpp/lib/libVoiceEngine.a(adpcm.o)
                0x00078c30                adpcm_encoder_pack
                0x00078c7c                adpcm_decoder_unpack
                0x00078cbc                adpcm_coder
                0x00078df4                adpcm_decoder
                0x00078f0c                adpcm_frame_rtp_asf
                0x00078ff4                adpcm_frame_asf_rtp
                0x000790dc                ADPCM_state_reset
                0x000790ec                ADPCM_encode
                0x00079220                ADPCM_decode
 .text          0x00079350      0x940 /home/liuboyuan/workspace/Hi3518_SDK_V1.0.8.0/mpp/lib/libVoiceEngine.a(encode72616k.o)
                0x00079350                Encode72616k
 .text          0x00079c90      0xdfc /home/liuboyuan/workspace/Hi3518_SDK_V1.0.8.0/mpp/lib/libVoiceEngine.a(g711func.o)
                0x00079c90                linear2alaw
                0x00079ef0                linear2ulaw
                0x0007a0d0                alaw2linear
                0x0007a1e8                alaw2ulaw
                0x0007a300                ulaw2linear
                0x0007a418                ulaw2alaw
                0x0007a530                G711_A_DEC
                0x0007a544                G711_A_ENC
                0x0007a55c                G711_U_DEC
                0x0007a570                G711_U_ENC
                0x0007a588                encoder_pack
                0x0007a6e4                encoder_org_pack
                0x0007a834                decoder_unpack
                0x0007a8a0                decoder_org_unpack
                0x0007a90c                G711_encode
                0x0007a9cc                G711_decode
 .text          0x0007aa8c     0x2250 /home/liuboyuan/workspace/Hi3518_SDK_V1.0.8.0/mpp/lib/libVoiceEngine.a(g726_optimize.o)
                0x0007aa8c                G726_state_reset
                0x0007ab04                G726_encoder_pack
                0x0007ac98                G726_decoder_unpack
                0x0007ad48                QuantizerScaleFactorAdaptation2
                0x0007ade0                AdaptationSpeedControl2
                0x0007aea0                AdaptativePredictorAndReconstructedSignalCalculator2
                0x0007b37c                ToneAndTransitionDetector1
                0x0007b3c8                ToneAndTransitionDetector2
                0x0007b3ec                OutputPCMFormatConversionAndSynchronousCodingAdjustment
                0x0007b58c                DifferenceSignalComputation
                0x0007b598                OutputLimiting
                0x0007b5c4                G726Reset
                0x0007b644                G726Rtp2AsfFormat
                0x0007b6d8                G726Asf2RtpFormat
                0x0007b784                G726Encode
                0x0007b8d0                G726_decode_core
                0x0007bf5c                G726_decode
                0x0007bfa0                G726_encode_core
                0x0007c5ec                G726_encode
                0x0007c62c                AdaptativePredictorAndReconstructedSignalCalculator1
                0x0007c9a4                EncodeDecode
                0x0007cc44                EncodeOne
                0x0007cc4c                DecodeOne
                0x0007cc60                G726Decode
 .text          0x0007ccdc      0x2e0 /home/liuboyuan/workspace/Hi3518_SDK_V1.0.8.0/mpp/lib/libVoiceEngine.a(g726_sub.o)
                0x0007ccdc                adpcm_log
                0x0007ce10                adpcm_quant
                0x0007ce5c                adpcm_antilog
                0x0007ce98                adpcm_findfi
                0x0007ceec                adpcm_findwi
                0x0007cf40                adpcm_upda2
 .text          0x0007cfbc      0xf40 /home/liuboyuan/workspace/Hi3518_SDK_V1.0.8.0/mpp/lib/libVoiceEngine.a(encode726.o)
                0x0007cfbc                Encode726
 .text          0x0007defc      0x1d0 /home/liuboyuan/workspace/Hi3518_SDK_V1.0.8.0/mpp/lib/libaec.a(echowrap.o)
                0x0007defc                AEC_GetVersion
                0x0007df44                AEC_DeInit
                0x0007df50                AEC_ProcessFrame
                0x0007dfb0                AEC_Init
 .text          0x0007e0cc     0x75fc /home/liuboyuan/workspace/Hi3518_SDK_V1.0.8.0/mpp/lib/libaec.a(mdf.o)
                0x0007e0cc                Aec_speex_echo_state_reset
                0x0007e638                Aec_speex_echo_state_init
                0x0007f0c0                Aec_speex_echo_get_residual
                0x0007f690                Aec_speex_echo_cancellation
 .text          0x000856c8     0x3984 /home/liuboyuan/workspace/Hi3518_SDK_V1.0.8.0/mpp/lib/libaec.a(preprocess.o)
                0x000856c8                Aec_speex_preprocess_state_init
                0x00085cc0                Aec_speex_preprocess_run
 .text          0x0008904c        0x0 /home/liuboyuan/workspace/Hi3518_SDK_V1.0.8.0/mpp/lib/libaec.a(aec_rom.o)
 .text          0x0008904c      0x2c0 /home/liuboyuan/workspace/Hi3518_SDK_V1.0.8.0/mpp/lib/libaec.a(basic_gcc.o)
                0x0008904c                Aec_udiv_32by32_arm9e
                0x00089130                Aec_udiv_q31_arm9e
                0x00089228                Aec_DIV32_16
 .text          0x0008930c      0x1a0 /home/liuboyuan/workspace/Hi3518_SDK_V1.0.8.0/mpp/lib/libaec.a(basic_op.o)
                0x0008930c                Aec_ABS16
                0x00089320                Aec_SHL32
                0x00089364                Aec_SHR32
                0x000893a0                Aec_SHL16
                0x00089404                Aec_SHR16
                0x0008946c                Aec_DIV32
 .text          0x000894ac      0x598 /home/liuboyuan/workspace/Hi3518_SDK_V1.0.8.0/mpp/lib/libaec.a(fftwrap.o)
                0x000894ac                Aec_spx_ifft
                0x000894b4                Aec_spx_fft
                0x00089848                Aec_fft_init
 .text          0x00089a44      0x518 /home/liuboyuan/workspace/Hi3518_SDK_V1.0.8.0/mpp/lib/libaec.a(filterbank.o)
                0x00089a44                Aec_filterbank_compute_bank32
                0x00089b80                Aec_filterbank_compute_psd16
                0x00089d70                Aec_bank_init
 .text          0x00089f5c      0x29c /home/liuboyuan/workspace/Hi3518_SDK_V1.0.8.0/mpp/lib/libaec.a(kiss_fftr.o)
                0x00089f5c                Aec_kiss_fftri2
                0x0008a09c                Aec_kiss_fftr2
 .text          0x0008a1f8      0x568 /home/liuboyuan/workspace/Hi3518_SDK_V1.0.8.0/mpp/lib/libaec.a(math_approx.o)
                0x0008a1f8                Aec_spx_ilog2
                0x0008a204                Aec_spx_ilog4
                0x0008a214                Aec_spx_cos
                0x0008a304                Aec_spx_cos_norm
                0x0008a488                Aec_spx_atan
                0x0008a5d0                Aec_spx_exp
                0x0008a6b0                Aec_spx_sqrt
 .text          0x0008a760     0x256c /home/liuboyuan/workspace/Hi3518_SDK_V1.0.8.0/mpp/lib/libaec.a(kiss_fft.o)
                0x0008a760                Aec_kiss_fft
 .text          0x0008cccc      0x360 /home/liuboyuan/workspace/Hi3518_SDK_V1.0.8.0/mpp/lib/libaec.a(kf_bfly4_fft.o)
                0x0008cccc                Aec_kf_bfly4_ifft
                0x0008ce70                Aec_kf_bfly4_fft
 .text          0x0008d02c      0x2c0 /home/liuboyuan/workspace/Hi3518_SDK_V1.0.8.0/mpp/lib/libaec.a(kf_bfly5_fft.o)
                0x0008d02c                Aec_kf_bfly5_fft
 .text          0x0008d2ec      0x664 /home/liuboyuan/workspace/Hi3518_SDK_V1.0.8.0/mpp/lib/libresampler.a(resampler_wrap.o)
                0x0008d720                ResamplerCreate
                0x0008d788                ResampleFlush
                0x0008d7a4                ResamplerFree
                0x0008d7d0                ResamplerMono1X2Process
                0x0008d810                ResamplerMono2X1Process
                0x0008d850                ResamplerMono4X1Process
                0x0008d890                ResamplerMono1X4Process
                0x0008d8d0                ResamplerMono6X1Process
                0x0008d910                ResamplerMono1X6Process
 .text          0x0008d950      0x46c /home/liuboyuan/workspace/Hi3518_SDK_V1.0.8.0/mpp/lib/libresampler.a(resampler.o)
                0x0008d950                HI_Resampler_Create
                0x0008dca4                HI_Resampler_Process
                0x0008dd6c                HI_Resampler_Free
 .text          0x0008ddbc     0x2d1c /home/liuboyuan/workspace/Hi3518_SDK_V1.0.8.0/mpp/lib/libresampler.a(resample_v2.o)
                0x0008fec4                RES_ResampleConfig
                0x00090788                RES_NEW_ResamplerCreate
                0x00090874                RES_NEW_ResamplerFree
                0x000908d4                RES_NEW_ResampleFlush
                0x00090918                RES_NEW_ResamplerCheck
                0x000909b8                RES_NEW_ResamplerGetMaxOutputNum
                0x00090a30                RES_NEW_ResamplerProcessFrame
 .text          0x00090ad8     0x1620 /home/liuboyuan/workspace/Hi3518_SDK_V1.0.8.0/mpp/lib/libresampler.a(linear_src.o)
                0x00090bc8                RES_LinearSRC_Create
                0x00090d5c                RES_LinearSRC_Destroy
                0x00090d88                RES_LinearSRC_GetMaxOutputNum
                0x00090df0                RES_LinearSRC_CheckUpdate
                0x00090ecc                RES_LinearSRC_UpdateChange
                0x000910d0                RES_LinearSRC_CheckDoSRC
                0x00091124                RES_LinearSRC_SetSpeedAdjust
                0x00091ed8                RES_LinearSRC_ProcessFrame
                0x00092098                RES_Volume_ProcessFrame
 .text          0x000920f8     0x41c8 /home/liuboyuan/workspace/Hi3518_SDK_V1.0.8.0/mpp/lib/libresampler.a(resampler2X.o)
                0x00092278                RES_Resample2X_Flush
                0x000922c8                RES_Resampler2X_Free
                0x0009231c                RES_Resampler2X_GetMaxOutputNum
                0x000923f0                RES_Resampler2X_GetMinInputNum
                0x00096118                RES_Resampler2X_Create
                0x00096158                RES_Resampler2X_Process
 .text          0x000962c0        0x0 /home/liuboyuan/workspace/Hi3518_SDK_V1.0.8.0/mpp/lib/libresampler.a(resample_rom.o)
 .text          0x000962c0      0x108 /home/liuboyuan/workspace/Hi3518_SDK_V1.0.8.0/mpp/lib/libanr.a(anr_wrap.o)
                0x000962c0                ANR_DeInit
                0x000962dc                ANR_ProcessFrame
                0x00096304                ANR_Init
 .text          0x000963c8     0x30d8 /home/liuboyuan/workspace/Hi3518_SDK_V1.0.8.0/mpp/lib/libanr.a(anr_preprocess.o)
                0x000963c8                compute_gain_floor
                0x000965d0                speex_preprocess_state_close
                0x00096684                anr_speex_anr_state_init
                0x00096dcc                anr_speex_anr_run
 .text          0x000994a0      0x2c0 /home/liuboyuan/workspace/Hi3518_SDK_V1.0.8.0/mpp/lib/libanr.a(anr_basic_gcc.o)
                0x000994a0                anr_udiv_32by32_arm9e
                0x00099584                udiv_q31_arm9e
                0x0009967c                anr_DIV32_16
 .text          0x00099760      0x1a0 /home/liuboyuan/workspace/Hi3518_SDK_V1.0.8.0/mpp/lib/libanr.a(anr_basic_op.o)
                0x00099760                ABS16
                0x00099774                SHL32
                0x000997b8                SHR32
                0x000997f4                SHL16
                0x00099858                SHR16
                0x000998c0                anr_DIV32
 .text          0x00099900      0x660 /home/liuboyuan/workspace/Hi3518_SDK_V1.0.8.0/mpp/lib/libanr.a(anr_fftwrap.o)
                0x00099900                anr_spx_ifft
                0x00099908                anr_spx_fft
                0x00099c40                fft_close
                0x00099cbc                fft_init
 .text          0x00099f60      0x53c /home/liuboyuan/workspace/Hi3518_SDK_V1.0.8.0/mpp/lib/libanr.a(anr_filterbank.o)
                0x00099f60                anr_filterbank_compute_bank32
                0x0009a0a0                anr_filterbank_compute_psd16
                0x0009a290                bank_close
                0x0009a2ac                anr_bank_init
 .text          0x0009a49c      0x294 /home/liuboyuan/workspace/Hi3518_SDK_V1.0.8.0/mpp/lib/libanr.a(anr_kiss_fftr.o)
                0x0009a49c                anr_kiss_fftri2
                0x0009a5d4                anr_kiss_fftr2
 .text          0x0009a730      0x568 /home/liuboyuan/workspace/Hi3518_SDK_V1.0.8.0/mpp/lib/libanr.a(anr_math_approx.o)
                0x0009a730                anr_spx_ilog2
                0x0009a73c                anr_spx_ilog4
                0x0009a74c                spx_cos
                0x0009a83c                anr_spx_cos_norm
                0x0009a9c0                anr_spx_atan
                0x0009ab08                anr_spx_exp
                0x0009abe8                anr_spx_sqrt
 .text          0x0009ac98     0x5fe0 /home/liuboyuan/workspace/Hi3518_SDK_V1.0.8.0/mpp/lib/libanr.a(anr_kiss_fft.o)
                0x0009e6b0                anr_kiss_fft
 .text          0x000a0c78      0x3a8 /home/liuboyuan/workspace/Hi3518_SDK_V1.0.8.0/mpp/lib/libanr.a(anr_kf_bfly4_fft.o)
                0x000a0c78                anr_kf_bfly4_ifft
                0x000a0e64                anr_kf_bfly4_fft
 .text          0x000a1020      0x2c0 /home/liuboyuan/workspace/Hi3518_SDK_V1.0.8.0/mpp/lib/libanr.a(anr_kf_bfly5_fft.o)
                0x000a1020                anr_kf_bfly5_fft
 .text          0x000a12e0        0x0 /opt/hisi-linux-nptl/arm-hisiv100-linux/bin/../lib/gcc/arm-hisiv100-linux-uclibcgnueabi/4.4.1/crtend.o
 .text          0x000a12e0        0x0 /opt/hisi-linux-nptl/arm-hisiv100-linux/bin/../target/usr/lib/crtn.o
 *(.gnu.warning)
 *(.glue_7t)
 .glue_7t       0x00000000        0x0 linker stubs
 *(.glue_7)
 .glue_7        0x00000000        0x0 linker stubs
 *(.vfp11_veneer)
 .vfp11_veneer  0x00000000        0x0 linker stubs
 *(.v4_bx)
 .v4_bx         0x00000000        0x0 linker stubs

.fini           0x000a12e0       0x10
 *(.fini)
 .fini          0x000a12e0        0xc /opt/hisi-linux-nptl/arm-hisiv100-linux/bin/../target/usr/lib/crti.o
                0x000a12e0                _fini
 .fini          0x000a12ec        0x4 /opt/hisi-linux-nptl/arm-hisiv100-linux/bin/../target/usr/lib/crtn.o
                0x000a12f0                PROVIDE (__etext, .)
                0x000a12f0                PROVIDE (_etext, .)
                0x000a12f0                PROVIDE (etext, .)

.rodata         0x000a12f0    0x2cd9c
 *(.rodata .rodata.* .gnu.linkonce.r.*)
 .rodata        0x000a12f0        0x8 ipc_main.o
                0x000a12f0                SM_OFFSET
 .rodata.str1.4
                0x000a12f8       0xeb ipc_main.o
                                 0xec (size before relaxing)
 *fill*         0x000a13e3        0x5 00
 .rodata._ZTV26RTPUDPv4TransmissionParams
                0x000a13e8       0x10 /home/liuboyuan/workspace/Hi3518_SDK_V1.0.8.0/mpp/3516C_src/base/base_rtp.o
                0x000a13e8                _ZTV26RTPUDPv4TransmissionParams
 .rodata._ZTI26RTPUDPv4TransmissionParams
                0x000a13f8        0xc /home/liuboyuan/workspace/Hi3518_SDK_V1.0.8.0/mpp/3516C_src/base/base_rtp.o
                0x000a13f8                _ZTI26RTPUDPv4TransmissionParams
 .rodata._ZTS26RTPUDPv4TransmissionParams
                0x000a1404       0x20 /home/liuboyuan/workspace/Hi3518_SDK_V1.0.8.0/mpp/3516C_src/base/base_rtp.o
                0x000a1404                _ZTS26RTPUDPv4TransmissionParams
 .rodata._ZTI21RTPTransmissionParams
                0x000a1424        0x8 /home/liuboyuan/workspace/Hi3518_SDK_V1.0.8.0/mpp/3516C_src/base/base_rtp.o
                0x000a1424                _ZTI21RTPTransmissionParams
 .rodata._ZTS21RTPTransmissionParams
                0x000a142c       0x18 /home/liuboyuan/workspace/Hi3518_SDK_V1.0.8.0/mpp/3516C_src/base/base_rtp.o
                0x000a142c                _ZTS21RTPTransmissionParams
 *fill*         0x000a1444        0x4 00
 .rodata._ZTV21RTPTransmissionParams
                0x000a1448       0x10 /home/liuboyuan/workspace/Hi3518_SDK_V1.0.8.0/mpp/3516C_src/base/base_rtp.o
                0x000a1448                _ZTV21RTPTransmissionParams
 .rodata._ZTV10RTPAddress
                0x000a1458       0x20 /home/liuboyuan/workspace/Hi3518_SDK_V1.0.8.0/mpp/3516C_src/base/base_rtp.o
                0x000a1458                _ZTV10RTPAddress
 .rodata._ZTI10RTPAddress
                0x000a1478        0x8 /home/liuboyuan/workspace/Hi3518_SDK_V1.0.8.0/mpp/3516C_src/base/base_rtp.o
                0x000a1478                _ZTI10RTPAddress
 .rodata._ZTS10RTPAddress
                0x000a1480       0x10 /home/liuboyuan/workspace/Hi3518_SDK_V1.0.8.0/mpp/3516C_src/base/base_rtp.o
                0x000a1480                _ZTS10RTPAddress
 .rodata        0x000a1490       0x9c /home/liuboyuan/workspace/Hi3518_SDK_V1.0.8.0/mpp/3516C_src/base/base_rtp.o
 .rodata.str1.4
                0x000a152c      0x19a /home/liuboyuan/workspace/Hi3518_SDK_V1.0.8.0/mpp/3516C_src/base/base_rtp.o
                                0x19c (size before relaxing)
 *fill*         0x000a16c6        0x2 00
 .rodata.str1.4
                0x000a16c8       0x21 /home/liuboyuan/workspace/Hi3518_SDK_V1.0.8.0/mpp/3516C_src/base/base_api_ledctl.o
                                 0x24 (size before relaxing)
 *fill*         0x000a16e9        0x3 00
 .rodata.str1.4
                0x000a16ec      0x183 /home/liuboyuan/workspace/Hi3518_SDK_V1.0.8.0/mpp/3516C_src/base/base_AVMsgManagement.o
                                0x190 (size before relaxing)
 *fill*         0x000a186f        0x1 00
 .rodata        0x000a1870       0xdc /home/liuboyuan/workspace/Hi3518_SDK_V1.0.8.0/mpp/3516C_src/base/base_comm_isp.o
 .rodata.str1.4
                0x000a194c      0x3ef /home/liuboyuan/workspace/Hi3518_SDK_V1.0.8.0/mpp/3516C_src/base/base_comm_isp.o
                                0x3f4 (size before relaxing)
 *fill*         0x000a1d3b        0x1 00
 .rodata        0x000a1d3c       0xa0 /home/liuboyuan/workspace/Hi3518_SDK_V1.0.8.0/mpp/3516C_src/base/base_comm_sys.o
 .rodata.str1.4
                0x000a1ddc      0x148 /home/liuboyuan/workspace/Hi3518_SDK_V1.0.8.0/mpp/3516C_src/base/base_comm_sys.o
                                0x1b8 (size before relaxing)
 .rodata        0x000a1f24      0x144 /home/liuboyuan/workspace/Hi3518_SDK_V1.0.8.0/mpp/3516C_src/base/base_comm_venc.o
                0x000a2060                g_SOI
                0x000a2064                g_EOI
 .rodata.str1.4
                0x000a2068      0x2dd /home/liuboyuan/workspace/Hi3518_SDK_V1.0.8.0/mpp/3516C_src/base/base_comm_venc.o
                                0x548 (size before relaxing)
 *fill*         0x000a2345        0x3 00
 .rodata        0x000a2348      0x1d4 /home/liuboyuan/workspace/Hi3518_SDK_V1.0.8.0/mpp/3516C_src/base/base_comm_vi.o
 .rodata.str1.4
                0x000a251c      0x375 /home/liuboyuan/workspace/Hi3518_SDK_V1.0.8.0/mpp/3516C_src/base/base_comm_vi.o
                                0x3b0 (size before relaxing)
 *fill*         0x000a2891        0x3 00
 .rodata        0x000a2894       0xbc /home/liuboyuan/workspace/Hi3518_SDK_V1.0.8.0/mpp/3516C_src/base/base_comm_vpss.o
 .rodata.str1.4
                0x000a2950      0x14d /home/liuboyuan/workspace/Hi3518_SDK_V1.0.8.0/mpp/3516C_src/base/base_comm_vpss.o
                                0x178 (size before relaxing)
 *fill*         0x000a2a9d        0x3 00
 .rodata        0x000a2aa0       0x1c /home/liuboyuan/workspace/Hi3518_SDK_V1.0.8.0/mpp/3516C_src/base/base_ircut_ctl.o
 .rodata.str1.4
                0x000a2abc       0xc9 /home/liuboyuan/workspace/Hi3518_SDK_V1.0.8.0/mpp/3516C_src/base/base_ircut_ctl.o
                                 0xcc (size before relaxing)
 *fill*         0x000a2b85        0x3 00
 .rodata.str1.4
                0x000a2b88      0x1d9 /home/liuboyuan/workspace/Hi3518_SDK_V1.0.8.0/mpp/3516C_src/base/base_loadbmp.o
                                0x1dc (size before relaxing)
 *fill*         0x000a2d61        0x3 00
 .rodata        0x000a2d64      0x3a0 /home/liuboyuan/workspace/Hi3518_SDK_V1.0.8.0/mpp/3516C_src/base/base_mw_boardinterface.o
 .rodata.str1.4
                0x000a3104      0xaf2 /home/liuboyuan/workspace/Hi3518_SDK_V1.0.8.0/mpp/3516C_src/base/base_mw_boardinterface.o
                                0xc00 (size before relaxing)
 *fill*         0x000a3bf6        0x2 00
 .rodata.str1.4
                0x000a3bf8      0x12e /home/liuboyuan/workspace/Hi3518_SDK_V1.0.8.0/mpp/3516C_src/base/base_mw_filesort.o
                                0x140 (size before relaxing)
 *fill*         0x000a3d26        0x2 00
 .rodata        0x000a3d28     0x2434 /home/liuboyuan/workspace/Hi3518_SDK_V1.0.8.0/mpp/3516C_src/base/base_mw_osd.o
                0x000a3d28                ascii_table_16_24_0020
                0x000a3d88                ascii_table_16_24_0021
                0x000a3de8                ascii_table_16_24_0022
                0x000a3e48                ascii_table_16_24_0023
                0x000a3ea8                ascii_table_16_24_0024
                0x000a3f08                ascii_table_16_24_0025
                0x000a3f68                ascii_table_16_24_0026
                0x000a3fc8                ascii_table_16_24_0027
                0x000a4028                ascii_table_16_24_0028
                0x000a4088                ascii_table_16_24_0029
                0x000a40e8                ascii_table_16_24_002a
                0x000a4148                ascii_table_16_24_002b
                0x000a41a8                ascii_table_16_24_002c
                0x000a4208                ascii_table_16_24_002d
                0x000a4268                ascii_table_16_24_002e
                0x000a42c8                ascii_table_16_24_002f
                0x000a4328                ascii_table_16_24_0030
                0x000a4388                ascii_table_16_24_0031
                0x000a43e8                ascii_table_16_24_0032
                0x000a4448                ascii_table_16_24_0033
                0x000a44a8                ascii_table_16_24_0034
                0x000a4508                ascii_table_16_24_0035
                0x000a4568                ascii_table_16_24_0036
                0x000a45c8                ascii_table_16_24_0037
                0x000a4628                ascii_table_16_24_0038
                0x000a4688                ascii_table_16_24_0039
                0x000a46e8                ascii_table_16_24_003a
                0x000a4748                ascii_table_16_24_003b
                0x000a47a8                ascii_table_16_24_003c
                0x000a4808                ascii_table_16_24_003d
                0x000a4868                ascii_table_16_24_003e
                0x000a48c8                ascii_table_16_24_003f
                0x000a4928                ascii_table_16_24_0040
                0x000a4988                ascii_table_16_24_0041
                0x000a49e8                ascii_table_16_24_0042
                0x000a4a48                ascii_table_16_24_0043
                0x000a4aa8                ascii_table_16_24_0044
                0x000a4b08                ascii_table_16_24_0045
                0x000a4b68                ascii_table_16_24_0046
                0x000a4bc8                ascii_table_16_24_0047
                0x000a4c28                ascii_table_16_24_0048
                0x000a4c88                ascii_table_16_24_0049
                0x000a4ce8                ascii_table_16_24_004a
                0x000a4d48                ascii_table_16_24_004b
                0x000a4da8                ascii_table_16_24_004c
                0x000a4e08                ascii_table_16_24_004d
                0x000a4e68                ascii_table_16_24_004e
                0x000a4ec8                ascii_table_16_24_004f
                0x000a4f28                ascii_table_16_24_0050
                0x000a4f88                ascii_table_16_24_0051
                0x000a4fe8                ascii_table_16_24_0052
                0x000a5048                ascii_table_16_24_0053
                0x000a50a8                ascii_table_16_24_0054
                0x000a5108                ascii_table_16_24_0055
                0x000a5168                ascii_table_16_24_0056
                0x000a51c8                ascii_table_16_24_0057
                0x000a5228                ascii_table_16_24_0058
                0x000a5288                ascii_table_16_24_0059
                0x000a52e8                ascii_table_16_24_005a
                0x000a5348                ascii_table_16_24_005b
                0x000a53a8                ascii_table_16_24_005c
                0x000a5408                ascii_table_16_24_005d
                0x000a5468                ascii_table_16_24_005e
                0x000a54c8                ascii_table_16_24_005f
                0x000a5528                ascii_table_16_24_0060
                0x000a5588                ascii_table_16_24_0061
                0x000a55e8                ascii_table_16_24_0062
                0x000a5648                ascii_table_16_24_0063
                0x000a56a8                ascii_table_16_24_0064
                0x000a5708                ascii_table_16_24_0065
                0x000a5768                ascii_table_16_24_0066
                0x000a57c8                ascii_table_16_24_0067
                0x000a5828                ascii_table_16_24_0068
                0x000a5888                ascii_table_16_24_0069
                0x000a58e8                ascii_table_16_24_006a
                0x000a5948                ascii_table_16_24_006b
                0x000a59a8                ascii_table_16_24_006c
                0x000a5a08                ascii_table_16_24_006d
                0x000a5a68                ascii_table_16_24_006e
                0x000a5ac8                ascii_table_16_24_006f
                0x000a5b28                ascii_table_16_24_0070
                0x000a5b88                ascii_table_16_24_0071
                0x000a5be8                ascii_table_16_24_0072
                0x000a5c48                ascii_table_16_24_0073
                0x000a5ca8                ascii_table_16_24_0074
                0x000a5d08                ascii_table_16_24_0075
                0x000a5d68                ascii_table_16_24_0076
                0x000a5dc8                ascii_table_16_24_0077
                0x000a5e28                ascii_table_16_24_0078
                0x000a5e88                ascii_table_16_24_0079
                0x000a5ee8                ascii_table_16_24_007a
                0x000a5f48                ascii_table_16_24_007b
                0x000a5fa8                ascii_table_16_24_007c
                0x000a6008                ascii_table_16_24_007d
                0x000a6068                ascii_table_16_24_007e
                0x000a60c8                ascii_table_16_24_007f
                0x000a6128                cOSDColorRed
                0x000a612c                cOSDColorGreen
                0x000a6130                cOSDColorBlue
                0x000a6134                cOSDColorBlack
                0x000a6138                cOSDColorWhite
                0x000a613c                cOSDColorYellow
                0x000a6140                cOSDColorPurple
                0x000a6144                cOSDColorIndianRed
                0x000a6148                cOSDColorOliveDrab
                0x000a614c                cOSDColorSkyBlue
                0x000a6150                cOSDColorWheat
                0x000a6154                cOSDColorThistle
                0x000a6158                cOSDColorGray
 .rodata        0x000a615c       0x20 /home/liuboyuan/workspace/Hi3518_SDK_V1.0.8.0/mpp/3516C_src/base/base_mw_overlay.o
 .rodata.str1.4
                0x000a617c       0x6d /home/liuboyuan/workspace/Hi3518_SDK_V1.0.8.0/mpp/3516C_src/base/base_mw_overlay.o
                                 0x78 (size before relaxing)
 *fill*         0x000a61e9        0x3 00
 .rodata.str1.4
                0x000a61ec       0x51 /home/liuboyuan/workspace/Hi3518_SDK_V1.0.8.0/mpp/3516C_src/base/base_mw_region.o
                                 0x54 (size before relaxing)
 *fill*         0x000a623d        0x3 00
 .rodata.str1.4
                0x000a6240      0x107 /home/liuboyuan/workspace/Hi3518_SDK_V1.0.8.0/mpp/3516C_src/base/base_mw_sd.o
                                0x16c (size before relaxing)
 *fill*         0x000a6347        0x1 00
 .rodata        0x000a6348       0xa8 /home/liuboyuan/workspace/Hi3518_SDK_V1.0.8.0/mpp/3516C_src/base/base_mw_snap.o
                0x000a637c                RECSNAPPATH
 .rodata.str1.4
                0x000a63f0      0x46c /home/liuboyuan/workspace/Hi3518_SDK_V1.0.8.0/mpp/3516C_src/base/base_mw_snap.o
                                0x498 (size before relaxing)
 .rodata        0x000a685c       0x1c /home/liuboyuan/workspace/Hi3518_SDK_V1.0.8.0/mpp/3516C_src/base/base_mw_subcard.o
 .rodata.str1.4
                0x000a6878       0x53 /home/liuboyuan/workspace/Hi3518_SDK_V1.0.8.0/mpp/3516C_src/base/base_mw_subcard.o
                                 0x58 (size before relaxing)
 *fill*         0x000a68cb        0x1 00
 .rodata        0x000a68cc       0x5c /home/liuboyuan/workspace/Hi3518_SDK_V1.0.8.0/mpp/3516C_src/base/base_mw_subcard_rec.o
 .rodata.str1.4
                0x000a6928      0x148 /home/liuboyuan/workspace/Hi3518_SDK_V1.0.8.0/mpp/3516C_src/base/base_mw_subcard_rec.o
                                0x150 (size before relaxing)
 .rodata.str1.4
                0x000a6a70       0x98 /home/liuboyuan/workspace/Hi3518_SDK_V1.0.8.0/mpp/3516C_src/base/base_mw_time.o
                                 0x9c (size before relaxing)
 .rodata.str1.4
                0x000a6b08      0x237 /home/liuboyuan/workspace/Hi3518_SDK_V1.0.8.0/mpp/3516C_src/base/base_mw_wifi.o
                                0x23c (size before relaxing)
 *fill*         0x000a6d3f        0x1 00
 .rodata        0x000a6d40      0x134 /home/liuboyuan/workspace/Hi3518_SDK_V1.0.8.0/mpp/3516C_src/base/base_util_mux_imple_mpegts.o
 .rodata.str1.4
                0x000a6e74      0x123 /home/liuboyuan/workspace/Hi3518_SDK_V1.0.8.0/mpp/3516C_src/base/base_util_mux_imple_mpegts.o
                                0x124 (size before relaxing)
 *fill*         0x000a6f97        0x1 00
 .rodata        0x000a6f98       0x8c /home/liuboyuan/workspace/Hi3518_SDK_V1.0.8.0/mpp/3516C_src/base/base_venc_control.o
 .rodata.str1.4
                0x000a7024      0x64b /home/liuboyuan/workspace/Hi3518_SDK_V1.0.8.0/mpp/3516C_src/base/base_venc_control.o
                                0x6cc (size before relaxing)
 *fill*         0x000a766f        0x1 00
 .rodata        0x000a7670       0x58 /home/liuboyuan/workspace/Hi3518_SDK_V1.0.8.0/mpp/3516C_src/base/base_venc_dataconsume.o
 .rodata.str1.4
                0x000a76c8      0x17d /home/liuboyuan/workspace/Hi3518_SDK_V1.0.8.0/mpp/3516C_src/base/base_venc_dataconsume.o
                                0x218 (size before relaxing)
 *fill*         0x000a7845        0x3 00
 .rodata.str1.4
                0x000a7848       0x5e /home/liuboyuan/workspace/Hi3518_SDK_V1.0.8.0/mpp/3516C_src/base/base_venc_handle.o
                                 0x60 (size before relaxing)
 *fill*         0x000a78a6        0x2 00
 .rodata.str1.4
                0x000a78a8        0xc /home/liuboyuan/workspace/Hi3518_SDK_V1.0.8.0/mpp/3516C_src/ctrl/ctrl_api_button.o
 .rodata.str1.4
                0x000a78b4       0x70 /home/liuboyuan/workspace/Hi3518_SDK_V1.0.8.0/mpp/3516C_src/ctrl/ctrl_cmdPreHanle.o
                                 0x74 (size before relaxing)
 .rodata.str1.4
                0x000a7924      0x27e /home/liuboyuan/workspace/Hi3518_SDK_V1.0.8.0/mpp/3516C_src/ctrl/ctrl_guiReq.o
                                0x280 (size before relaxing)
 *fill*         0x000a7ba2        0x2 00
 .rodata.str1.4
                0x000a7ba4       0x6a /home/liuboyuan/workspace/Hi3518_SDK_V1.0.8.0/mpp/3516C_src/ctrl/ctrl_interactiveCtl.o
                                 0x6c (size before relaxing)
 *fill*         0x000a7c0e        0x2 00
 .rodata.str1.4
                0x000a7c10       0x32 /home/liuboyuan/workspace/Hi3518_SDK_V1.0.8.0/mpp/3516C_src/ctrl/ctrl_reqResponse.o
                                 0x34 (size before relaxing)
 *fill*         0x000a7c42        0x2 00
 .rodata.str1.4
                0x000a7c44     0x1d23 /home/liuboyuan/workspace/Hi3518_SDK_V1.0.8.0/mpp/3516C_src/ctrl/ctrl_terminalReq.o
                               0x1d38 (size before relaxing)
 *fill*         0x000a9967        0x1 00
 .rodata        0x000a9968       0x24 /home/liuboyuan/workspace/Hi3518_SDK_V1.0.8.0/mpp/3516C_src/ctrl/ctrl_uart_getCommand.o
 .rodata.str1.4
                0x000a998c       0xb5 /home/liuboyuan/workspace/Hi3518_SDK_V1.0.8.0/mpp/3516C_src/ctrl/ctrl_uart_getCommand.o
                                 0xfc (size before relaxing)
 *fill*         0x000a9a41        0x3 00
 .rodata        0x000a9a44       0x34 /home/liuboyuan/workspace/Hi3518_SDK_V1.0.8.0/mpp/3516C_src/ctrl/CTRL_UARTREQ_PARSECOMMAND_Common.o
 .rodata.str1.4
                0x000a9a78       0xa0 /home/liuboyuan/workspace/Hi3518_SDK_V1.0.8.0/mpp/3516C_src/ctrl/CTRL_UARTREQ_PARSECOMMAND_Common.o
                                 0xa4 (size before relaxing)
 .rodata        0x000a9b18        0x4 /home/liuboyuan/workspace/Hi3518_SDK_V1.0.8.0/mpp/3516C_src/ctrl/CTRL_UARTREQ_PARSECOMMAND_EMPTY.o
 .rodata.str1.4
                0x000a9b1c        0x6 /home/liuboyuan/workspace/Hi3518_SDK_V1.0.8.0/mpp/3516C_src/ctrl/CTRL_UARTREQ_PARSECOMMAND_EMPTY.o
                                  0x8 (size before relaxing)
 *fill*         0x000a9b22        0x2 00
 .rodata        0x000a9b24        0x4 /home/liuboyuan/workspace/Hi3518_SDK_V1.0.8.0/mpp/3516C_src/ctrl/CTRL_UARTREQ_PARSECOMMAND_INTER.o
 .rodata.str1.4
                0x000a9b28       0x1e /home/liuboyuan/workspace/Hi3518_SDK_V1.0.8.0/mpp/3516C_src/ctrl/CTRL_UARTREQ_PARSECOMMAND_INTER.o
                                 0x24 (size before relaxing)
 *fill*         0x000a9b46        0x2 00
 .rodata        0x000a9b48        0x4 /home/liuboyuan/workspace/Hi3518_SDK_V1.0.8.0/mpp/3516C_src/ctrl/CTRL_UARTREQ_PARSECOMMAND_QUIT.o
 .rodata.str1.4
                0x000a9b4c        0x5 /home/liuboyuan/workspace/Hi3518_SDK_V1.0.8.0/mpp/3516C_src/ctrl/CTRL_UARTREQ_PARSECOMMAND_QUIT.o
                                  0x8 (size before relaxing)
 *fill*         0x000a9b51        0x3 00
 .rodata        0x000a9b54        0x4 /home/liuboyuan/workspace/Hi3518_SDK_V1.0.8.0/mpp/3516C_src/ctrl/CTRL_UARTREQ_PARSECOMMAND_SNAP.o
 .rodata.str1.4
                0x000a9b58        0x5 /home/liuboyuan/workspace/Hi3518_SDK_V1.0.8.0/mpp/3516C_src/ctrl/CTRL_UARTREQ_PARSECOMMAND_SNAP.o
                                  0x8 (size before relaxing)
 *fill*         0x000a9b5d        0x3 00
 .rodata.str1.4
                0x000a9b60       0x18 /home/liuboyuan/workspace/Hi3518_SDK_V1.0.8.0/mpp/3516C_src/ctrl/CTRL_UARTREQ_PARSECOMMAND_TIME.o
                                 0x34 (size before relaxing)
 .rodata.str1.4
                0x000a9b78       0x94 /home/liuboyuan/workspace/Hi3518_SDK_V1.0.8.0/mpp/3516C_src/ctrl/ctrl_uartReq_saveReq.o
 .rodata        0x000a9c0c       0x50 /home/liuboyuan/workspace/Hi3518_SDK_V1.0.8.0/mpp/3516C_src/common/comm_command.o
 .rodata.str1.4
                0x000a9c5c       0x38 /home/liuboyuan/workspace/Hi3518_SDK_V1.0.8.0/mpp/3516C_src/common/comm_command.o
 .rodata.str1.4
                0x000a9c94       0x1c /home/liuboyuan/workspace/Hi3518_SDK_V1.0.8.0/mpp/3516C_src/common/comm_conditionFlag.o
 .rodata        0x000a9cb0       0x3c /home/liuboyuan/workspace/Hi3518_SDK_V1.0.8.0/mpp/3516C_src/common/comm_dd_adc.o
 .rodata.str1.4
                0x000a9cec       0x6a /home/liuboyuan/workspace/Hi3518_SDK_V1.0.8.0/mpp/3516C_src/common/comm_dd_adc.o
                                 0x6c (size before relaxing)
 *fill*         0x000a9d56        0x2 00
 .rodata        0x000a9d58       0x28 /home/liuboyuan/workspace/Hi3518_SDK_V1.0.8.0/mpp/3516C_src/common/comm_dd_ircut.o
 .rodata.str1.4
                0x000a9d80       0x6b /home/liuboyuan/workspace/Hi3518_SDK_V1.0.8.0/mpp/3516C_src/common/comm_dd_ircut.o
                                 0x6c (size before relaxing)
 *fill*         0x000a9deb        0x1 00
 .rodata        0x000a9dec       0x9c /home/liuboyuan/workspace/Hi3518_SDK_V1.0.8.0/mpp/3516C_src/common/comm_dd_uart.o
 .rodata.str1.4
                0x000a9e88       0x76 /home/liuboyuan/workspace/Hi3518_SDK_V1.0.8.0/mpp/3516C_src/common/comm_dd_uart.o
                                 0x7c (size before relaxing)
 *fill*         0x000a9efe        0x2 00
 .rodata.str1.4
                0x000a9f00       0xf1 /home/liuboyuan/workspace/Hi3518_SDK_V1.0.8.0/mpp/3516C_src/common/comm_debug.o
                                 0xf4 (size before relaxing)
 *fill*         0x000a9ff1        0x3 00
 .rodata.str1.4
                0x000a9ff4        0x4 /home/liuboyuan/workspace/Hi3518_SDK_V1.0.8.0/mpp/3516C_src/common/comm_fileSort.o
                                 0x5c (size before relaxing)
 .rodata.str1.4
                0x000a9ff8       0x37 /home/liuboyuan/workspace/Hi3518_SDK_V1.0.8.0/mpp/3516C_src/common/comm_fileSystem.o
                                 0xe0 (size before relaxing)
 *fill*         0x000aa02f        0x1 00
 .rodata.str1.4
                0x000aa030       0x3e /home/liuboyuan/workspace/Hi3518_SDK_V1.0.8.0/mpp/3516C_src/common/comm_iplist.o
                                 0x44 (size before relaxing)
 *fill*         0x000aa06e        0x2 00
 .rodata        0x000aa070       0x10 /home/liuboyuan/workspace/Hi3518_SDK_V1.0.8.0/mpp/3516C_src/common/comm_list.o
 .rodata.str1.4
                0x000aa080       0x7d /home/liuboyuan/workspace/Hi3518_SDK_V1.0.8.0/mpp/3516C_src/common/comm_list.o
                                 0x80 (size before relaxing)
 *fill*         0x000aa0fd        0x3 00
 .rodata        0x000aa100       0x14 /home/liuboyuan/workspace/Hi3518_SDK_V1.0.8.0/mpp/3516C_src/common/comm_mw_time.o
 .rodata.str1.4
                0x000aa114       0x66 /home/liuboyuan/workspace/Hi3518_SDK_V1.0.8.0/mpp/3516C_src/common/comm_mw_time.o
                                 0x68 (size before relaxing)
 *fill*         0x000aa17a        0x2 00
 .rodata.str1.4
                0x000aa17c       0xbe /home/liuboyuan/workspace/Hi3518_SDK_V1.0.8.0/mpp/3516C_src/common/comm_mw_vfile.o
                                 0xc0 (size before relaxing)
 *fill*         0x000aa23a        0x2 00
 .rodata.str1.4
                0x000aa23c       0xe5 /home/liuboyuan/workspace/Hi3518_SDK_V1.0.8.0/mpp/3516C_src/common/comm_net.o
                                 0xe8 (size before relaxing)
 *fill*         0x000aa321        0x3 00
 .rodata.str1.4
                0x000aa324      0x481 /home/liuboyuan/workspace/Hi3518_SDK_V1.0.8.0/mpp/3516C_src/common/comm_parameters.o
                                0x48c (size before relaxing)
 .rodata.str1.4
                0x00000000      0x481 /home/liuboyuan/workspace/Hi3518_SDK_V1.0.8.0/mpp/3516C_src/common/comm_pipe.o
                                  0xc (size before relaxing)
 *fill*         0x000aa7a5        0x3 00
 .rodata        0x000aa7a8       0x28 /home/liuboyuan/workspace/Hi3518_SDK_V1.0.8.0/mpp/3516C_src/common/comm_pool.o
 .rodata.str1.4
                0x000aa7d0      0x2f6 /home/liuboyuan/workspace/Hi3518_SDK_V1.0.8.0/mpp/3516C_src/common/comm_pool.o
                                0x2f8 (size before relaxing)
 *fill*         0x000aaac6        0x2 00
 .rodata        0x000aaac8       0x5c /home/liuboyuan/workspace/Hi3518_SDK_V1.0.8.0/mpp/3516C_src/common/comm_pool_payload.o
 .rodata.str1.4
                0x000aab24       0xf4 /home/liuboyuan/workspace/Hi3518_SDK_V1.0.8.0/mpp/3516C_src/common/comm_pool_payload.o
 .rodata.str1.4
                0x000aac18      0x11f /home/liuboyuan/workspace/Hi3518_SDK_V1.0.8.0/mpp/3516C_src/common/comm_spaceSafer.o
                                0x120 (size before relaxing)
 *fill*         0x000aad37        0x1 00
 .rodata        0x000aad38       0x98 /home/liuboyuan/workspace/Hi3518_SDK_V1.0.8.0/mpp/3516C_src/common/comm_util.o
 .rodata.str1.4
                0x000aadd0       0xf9 /home/liuboyuan/workspace/Hi3518_SDK_V1.0.8.0/mpp/3516C_src/common/comm_util.o
                                0x138 (size before relaxing)
 *fill*         0x000aaec9        0x3 00
 .rodata.str1.4
                0x000aaecc       0x2e /home/liuboyuan/workspace/Hi3518_SDK_V1.0.8.0/mpp/lib/libmpi.a(mpi_region.o)
                                 0x30 (size before relaxing)
 *fill*         0x000aaefa        0x2 00
 .rodata.str1.4
                0x000aaefc      0x2a9 /home/liuboyuan/workspace/Hi3518_SDK_V1.0.8.0/mpp/lib/libmpi.a(mpi_sys.o)
                                0x2b0 (size before relaxing)
 *fill*         0x000ab1a5        0x3 00
 .rodata        0x000ab1a8       0x30 /home/liuboyuan/workspace/Hi3518_SDK_V1.0.8.0/mpp/lib/libmpi.a(mpi_vb.o)
 .rodata.str1.4
                0x000ab1d8      0x18c /home/liuboyuan/workspace/Hi3518_SDK_V1.0.8.0/mpp/lib/libmpi.a(mpi_vb.o)
                                0x1b8 (size before relaxing)
 .rodata        0x000ab364      0x714 /home/liuboyuan/workspace/Hi3518_SDK_V1.0.8.0/mpp/lib/libmpi.a(mpi_venc.o)
 .rodata.str1.4
                0x000aba78      0x28a /home/liuboyuan/workspace/Hi3518_SDK_V1.0.8.0/mpp/lib/libmpi.a(mpi_venc.o)
                                0x2e8 (size before relaxing)
 *fill*         0x000abd02        0x2 00
 .rodata        0x000abd04      0x4e4 /home/liuboyuan/workspace/Hi3518_SDK_V1.0.8.0/mpp/lib/libmpi.a(mpi_vi.o)
 .rodata.str1.4
                0x000ac1e8       0xe3 /home/liuboyuan/workspace/Hi3518_SDK_V1.0.8.0/mpp/lib/libmpi.a(mpi_vi.o)
                                 0xe4 (size before relaxing)
 *fill*         0x000ac2cb        0x1 00
 .rodata        0x000ac2cc      0x4cc /home/liuboyuan/workspace/Hi3518_SDK_V1.0.8.0/mpp/lib/libmpi.a(mpi_vpss.o)
 .rodata.str1.4
                0x000ac798       0x8f /home/liuboyuan/workspace/Hi3518_SDK_V1.0.8.0/mpp/lib/libmpi.a(mpi_vpss.o)
                                 0xac (size before relaxing)
 *fill*         0x000ac827        0x1 00
 .rodata        0x000ac828       0x48 /home/liuboyuan/workspace/Hi3518_SDK_V1.0.8.0/mpp/lib/libmpi.a(sys_bind.o)
 .rodata.str1.4
                0x000ac870      0x2ff /home/liuboyuan/workspace/Hi3518_SDK_V1.0.8.0/mpp/lib/libmpi.a(sys_bind.o)
                                0x368 (size before relaxing)
 *fill*         0x000acb6f        0x1 00
 .rodata        0x000acb70      0x170 /home/liuboyuan/workspace/Hi3518_SDK_V1.0.8.0/mpp/lib/libmpi.a(mpi_adec.o)
 .rodata.str1.4
                0x000acce0      0x322 /home/liuboyuan/workspace/Hi3518_SDK_V1.0.8.0/mpp/lib/libmpi.a(mpi_adec.o)
                                0x3b0 (size before relaxing)
 *fill*         0x000ad002        0x2 00
 .rodata        0x000ad004      0x21c /home/liuboyuan/workspace/Hi3518_SDK_V1.0.8.0/mpp/lib/libmpi.a(mpi_aenc.o)
 .rodata.str1.4
                0x000ad220      0x381 /home/liuboyuan/workspace/Hi3518_SDK_V1.0.8.0/mpp/lib/libmpi.a(mpi_aenc.o)
                                0x414 (size before relaxing)
 *fill*         0x000ad5a1        0x3 00
 .rodata        0x000ad5a4      0x218 /home/liuboyuan/workspace/Hi3518_SDK_V1.0.8.0/mpp/lib/libmpi.a(mpi_ai.o)
 .rodata.str1.4
                0x000ad7bc      0x6c4 /home/liuboyuan/workspace/Hi3518_SDK_V1.0.8.0/mpp/lib/libmpi.a(mpi_ai.o)
                                0x750 (size before relaxing)
 .rodata        0x000ade80      0x1e4 /home/liuboyuan/workspace/Hi3518_SDK_V1.0.8.0/mpp/lib/libmpi.a(mpi_ao.o)
 .rodata.str1.4
                0x000ae064      0x3aa /home/liuboyuan/workspace/Hi3518_SDK_V1.0.8.0/mpp/lib/libmpi.a(mpi_ao.o)
                                0x4c0 (size before relaxing)
 *fill*         0x000ae40e        0x2 00
 .rodata.str1.4
                0x000ae410       0x16 /home/liuboyuan/workspace/Hi3518_SDK_V1.0.8.0/mpp/lib/libmpi.a(audio_comm.o)
                                 0x38 (size before relaxing)
 *fill*         0x000ae426        0x2 00
 .rodata        0x000ae428      0x1d8 /home/liuboyuan/workspace/Hi3518_SDK_V1.0.8.0/mpp/lib/libmpi.a(audio_voice_adp.o)
 .rodata.str1.4
                0x000ae600      0x207 /home/liuboyuan/workspace/Hi3518_SDK_V1.0.8.0/mpp/lib/libmpi.a(audio_voice_adp.o)
                                0x268 (size before relaxing)
 *fill*         0x000ae807        0x1 00
 .rodata        0x000ae808       0x8c /home/liuboyuan/workspace/Hi3518_SDK_V1.0.8.0/mpp/lib/libisp.a(mpi_isp.o)
 .rodata.str1.4
                0x000ae894      0x3aa /home/liuboyuan/workspace/Hi3518_SDK_V1.0.8.0/mpp/lib/libisp.a(mpi_isp.o)
                                0x3ac (size before relaxing)
 *fill*         0x000aec3e        0x2 00
 .rodata.str1.4
                0x000aec40      0x15e /home/liuboyuan/workspace/Hi3518_SDK_V1.0.8.0/mpp/lib/libisp.a(mpi_isp_entry.o)
                                0x170 (size before relaxing)
 *fill*         0x000aed9e        0x2 00
 .rodata        0x000aeda0      0x100 /home/liuboyuan/workspace/Hi3518_SDK_V1.0.8.0/mpp/lib/libisp.a(apical_isp_defaults.o)
 .rodata.str1.4
                0x000aeea0       0x36 /home/liuboyuan/workspace/Hi3518_SDK_V1.0.8.0/mpp/lib/libisp.a(hi_regwr.o)
                                 0x38 (size before relaxing)
 *fill*         0x000aeed6        0x2 00
 .rodata.str1.4
                0x000aeed8      0x6d2 /home/liuboyuan/workspace/Hi3518_SDK_V1.0.8.0/mpp/lib/libisp.a(hisi_isp_proc.o)
                                0x738 (size before relaxing)
 *fill*         0x000af5aa        0x2 00
 .rodata        0x000af5ac       0x80 /home/liuboyuan/workspace/Hi3518_SDK_V1.0.8.0/mpp/lib/libisp.a(math_utils.o)
 .rodata        0x000af62c       0x1c /home/liuboyuan/workspace/Hi3518_SDK_V1.0.8.0/mpp/lib/libisp.a(apical_auto_wb.o)
 .rodata        0x000af648       0x10 /home/liuboyuan/workspace/Hi3518_SDK_V1.0.8.0/mpp/lib/libisp.a(apical_isp.o)
 .rodata        0x000af658      0x5a4 /home/liuboyuan/workspace/Hi3518_SDK_V1.0.8.0/mpp/lib/libisp.a(apical_new_antifog.o)
 .rodata.str1.4
                0x00000000       0x1c /home/liuboyuan/workspace/Hi3518_SDK_V1.0.8.0/mpp/lib/libisp.a(apical_new_antifog.o)
 .rodata.str1.4
                0x000afbfc       0x85 /home/liuboyuan/workspace/Hi3518_SDK_V1.0.8.0/mpp/lib/libisp.a(apical_pixel_calibration.o)
                                 0x88 (size before relaxing)
 *fill*         0x000afc81        0x3 00
 .rodata        0x000afc84      0x408 /home/liuboyuan/workspace/Hi3518_SDK_V1.0.8.0/mpp/lib/libisp.a(apical_pregamma.o)
 .rodata.str1.4
                0x000b008c      0x337 /home/liuboyuan/workspace/Hi3518_SDK_V1.0.8.0/mpp/lib/libisp.a(awb_fw.o)
                                0x338 (size before relaxing)
 *fill*         0x000b03c3        0x1 00
 .rodata        0x000b03c4      0x408 /home/liuboyuan/workspace/Hi3518_SDK_V1.0.8.0/mpp/lib/libisp.a(apical_gamma_init.o)
 .rodata.str1.4
                0x000b07cc      0x1a6 /home/liuboyuan/workspace/Hi3518_SDK_V1.0.8.0/mpp/lib/libisp.a(apical_iris_control.o)
                                0x1a8 (size before relaxing)
 *fill*         0x000b0972        0x2 00
 .rodata        0x000b0974      0x314 /home/liuboyuan/workspace/Hi3518_SDK_V1.0.8.0/mpp/lib/libsns_imx122.a(imx122_cmos.o)
 .rodata.str1.4
                0x000b0c88       0xf6 /home/liuboyuan/workspace/Hi3518_SDK_V1.0.8.0/mpp/lib/libsns_imx122.a(imx122_cmos.o)
                                 0xf8 (size before relaxing)
 *fill*         0x000b0d7e        0x2 00
 .rodata.str1.4
                0x000b0d80       0x51 /home/liuboyuan/workspace/Hi3518_SDK_V1.0.8.0/mpp/lib/libsns_imx122.a(imx122_sensor_ctl.o)
                                 0x54 (size before relaxing)
 *fill*         0x000b0dd1        0x3 00
 .rodata        0x000b0dd4       0x28 /home/liuboyuan/workspace/Hi3518_SDK_V1.0.8.0/mpp/lib/libVoiceEngine.a(voice.o)
 .rodata        0x000b0dfc      0x1a4 /home/liuboyuan/workspace/Hi3518_SDK_V1.0.8.0/mpp/lib/libVoiceEngine.a(adpcm.o)
 .rodata        0x000b0fa0       0xec /home/liuboyuan/workspace/Hi3518_SDK_V1.0.8.0/mpp/lib/libVoiceEngine.a(g726_optimize.o)
 .rodata        0x000b108c       0x24 /home/liuboyuan/workspace/Hi3518_SDK_V1.0.8.0/mpp/lib/libaec.a(echowrap.o)
 .rodata.str1.4
                0x000b10b0       0x64 /home/liuboyuan/workspace/Hi3518_SDK_V1.0.8.0/mpp/lib/libaec.a(echowrap.o)
 .rodata        0x000b1114       0x2c /home/liuboyuan/workspace/Hi3518_SDK_V1.0.8.0/mpp/lib/libaec.a(preprocess.o)
 .rodata        0x000b1140       0x24 /home/liuboyuan/workspace/Hi3518_SDK_V1.0.8.0/mpp/lib/libaec.a(aec_rom.o)
                0x000b1140                Aec_MIN_LEAK
                0x000b1144                Aec_VAR1_SMOOTH
                0x000b1148                Aec_VAR2_SMOOTH
                0x000b114c                Aec_VAR1_UPDATE
                0x000b1150                Aec_VAR2_UPDATE
                0x000b1154                Aec_VAR_BACKTRACK
                0x000b1158                Aec_FLOAT_ZERO
                0x000b115c                Aec_FLOAT_ONE
                0x000b1160                Aec_FLOAT_HALF
 .rodata        0x000b1164       0x90 /home/liuboyuan/workspace/Hi3518_SDK_V1.0.8.0/mpp/lib/libresampler.a(resampler_wrap.o)
 .rodata        0x000b11f4      0x1e0 /home/liuboyuan/workspace/Hi3518_SDK_V1.0.8.0/mpp/lib/libresampler.a(resampler.o)
 .rodata        0x000b13d4       0x38 /home/liuboyuan/workspace/Hi3518_SDK_V1.0.8.0/mpp/lib/libresampler.a(resampler2X.o)
 .rodata        0x000b140c    0x1cbec /home/liuboyuan/workspace/Hi3518_SDK_V1.0.8.0/mpp/lib/libresampler.a(resample_rom.o)
                0x000b140c                RES_res_48_48_nextphasetab
                0x000b1410                RES_res_48_48_good_filttab
                0x000b1810                RES_res_8_11_good_nextphasetab
                0x000b1ef4                RES_res_8_11_good_filttab
                0x000b5614                RES_res_8_12_good_nextphasetab
                0x000b5620                RES_res_8_12_good_filttab
                0x000b5680                RES_res_8_16_good_nextphasetab
                0x000b5688                RES_res_8_16_good_filttab
                0x000b56c8                RES_res_8_22_good_nextphasetab
                0x000b5dac                RES_res_8_24_good_nextphasetab
                0x000b5db8                RES_res_8_24_good_filttab
                0x000b5e18                RES_res_8_32_good_nextphasetab
                0x000b5e28                RES_res_8_32_good_filttab
                0x000b5ea8                RES_res_8_44_good_nextphasetab
                0x000b658c                RES_res_8_48_good_nextphasetab
                0x000b65a4                RES_res_8_48_good_filttab
                0x000b6664                RES_res_8_11_mid_filttab
                0x000b81f4                RES_res_8_22_mid_filttab
                0x000b9d84                RES_res_8_44_mid_filttab
                0x000bb914                RES_res_11_12_good_nextphasetab
                0x000bbb94                RES_res_11_12_good_filttab
                0x000bcf94                RES_res_11_16_good_nextphasetab
                0x000bd994                RES_res_11_24_good_nextphasetab
                0x000bde94                RES_res_11_32_good_nextphasetab
                0x000bf294                RES_res_11_48_good_nextphasetab
                0x000bfc94                RES_res_11_12_mid_filttab
                0x000c0694                RES_res_11_16_mid_filttab
                0x000c2e94                RES_res_11_24_mid_filttab
                0x000c4294                RES_res_11_32_mid_filttab
                0x000c9294                RES_res_11_48_mid_filttab
                0x000cba94                RES_res_12_16_good_nextphasetab
                0x000cbaa4                RES_res_12_16_good_filttab
                0x000cbb24                RES_res_12_22_good_nextphasetab
                0x000cbd70                RES_res_12_32_good_nextphasetab
                0x000cbd90                RES_res_12_32_good_filttab
                0x000cbe90                RES_res_12_44_good_nextphasetab
                0x000cc0dc                RES_res_12_22_mid_filttab
                0x000cca0c                RES_res_12_44_mid_filttab
                0x000cd33c                RES_res_32_48_mid_nextphasetab
                0x000cd348                RES_res_32_48_mid_filttab
                0x000cd378                RES_res_44_48_mid_nextphasetab
                0x000cd5f8                RES_res_44_48_mid_filttab
 .rodata.str1.4
                0x000cdff8       0x68 /home/liuboyuan/workspace/Hi3518_SDK_V1.0.8.0/mpp/lib/libanr.a(anr_wrap.o)
 .rodata        0x000ce060       0x2c /home/liuboyuan/workspace/Hi3518_SDK_V1.0.8.0/mpp/lib/libanr.a(anr_preprocess.o)

.rodata1
 *(.rodata1)

.ARM.extab      0x000ce08c       0x8c
 *(.ARM.extab* .gnu.linkonce.armextab.*)
 .ARM.extab.text._ZN21RTPTransmissionParamsD1Ev
                0x000ce08c        0x0 /home/liuboyuan/workspace/Hi3518_SDK_V1.0.8.0/mpp/3516C_src/base/base_rtp.o
 .ARM.extab.text._ZN10RTPAddressD1Ev
                0x000ce08c        0x0 /home/liuboyuan/workspace/Hi3518_SDK_V1.0.8.0/mpp/3516C_src/base/base_rtp.o
 .ARM.extab     0x000ce08c       0x8c /home/liuboyuan/workspace/Hi3518_SDK_V1.0.8.0/mpp/3516C_src/base/base_rtp.o
 .ARM.extab.text._ZN21RTPTransmissionParamsD0Ev
                0x000ce118        0x0 /home/liuboyuan/workspace/Hi3518_SDK_V1.0.8.0/mpp/3516C_src/base/base_rtp.o
 .ARM.extab.text._ZN10RTPAddressD0Ev
                0x000ce118        0x0 /home/liuboyuan/workspace/Hi3518_SDK_V1.0.8.0/mpp/3516C_src/base/base_rtp.o
 .ARM.extab.text._ZN26RTPUDPv4TransmissionParamsD0Ev
                0x000ce118        0x0 /home/liuboyuan/workspace/Hi3518_SDK_V1.0.8.0/mpp/3516C_src/base/base_rtp.o
 .ARM.extab.text._ZN26RTPUDPv4TransmissionParamsD1Ev
                0x000ce118        0x0 /home/liuboyuan/workspace/Hi3518_SDK_V1.0.8.0/mpp/3516C_src/base/base_rtp.o
                0x000ce118                PROVIDE (__exidx_start, .)

.ARM.exidx      0x000ce118       0x48
 *(.ARM.exidx* .gnu.linkonce.armexidx.*)
 .ARM.exidx.text._ZN21RTPTransmissionParamsD1Ev
                0x000ce158        0x8 /home/liuboyuan/workspace/Hi3518_SDK_V1.0.8.0/mpp/3516C_src/base/base_rtp.o
 .ARM.exidx.text._ZN10RTPAddressD1Ev
                0x000ce160        0x0 /home/liuboyuan/workspace/Hi3518_SDK_V1.0.8.0/mpp/3516C_src/base/base_rtp.o
                                  0x8 (size before relaxing)
 .ARM.exidx     0x000ce118       0x40 /home/liuboyuan/workspace/Hi3518_SDK_V1.0.8.0/mpp/3516C_src/base/base_rtp.o
                                 0x48 (size before relaxing)
 .ARM.exidx.text._ZN21RTPTransmissionParamsD0Ev
                0x000ce160        0x0 /home/liuboyuan/workspace/Hi3518_SDK_V1.0.8.0/mpp/3516C_src/base/base_rtp.o
                                  0x8 (size before relaxing)
 .ARM.exidx.text._ZN10RTPAddressD0Ev
                0x000ce160        0x0 /home/liuboyuan/workspace/Hi3518_SDK_V1.0.8.0/mpp/3516C_src/base/base_rtp.o
                                  0x8 (size before relaxing)
 .ARM.exidx.text._ZN26RTPUDPv4TransmissionParamsD0Ev
                0x000ce160        0x0 /home/liuboyuan/workspace/Hi3518_SDK_V1.0.8.0/mpp/3516C_src/base/base_rtp.o
                                  0x8 (size before relaxing)
 .ARM.exidx.text._ZN26RTPUDPv4TransmissionParamsD1Ev
                0x000ce160        0x0 /home/liuboyuan/workspace/Hi3518_SDK_V1.0.8.0/mpp/3516C_src/base/base_rtp.o
                                  0x8 (size before relaxing)
                0x000ce160                PROVIDE (__exidx_end, .)

.eh_frame_hdr
 *(.eh_frame_hdr)

.eh_frame
 *(.eh_frame)

.gcc_except_table
 *(.gcc_except_table .gcc_except_table.*)
                0x000ce160                . = (ALIGN (0x8000) - ((0x8000 - .) & 0x7fff))
                0x000d6160                . = (0x8000 DATA_SEGMENT_ALIGN 0x1000)

.eh_frame
 *(.eh_frame)

.gcc_except_table
 *(.gcc_except_table .gcc_except_table.*)

.tdata
 *(.tdata .tdata.* .gnu.linkonce.td.*)

.tbss
 *(.tbss .tbss.* .gnu.linkonce.tb.*)
 *(.tcommon)

.preinit_array  0x000d6160        0x0
                0x000d6160                PROVIDE (__preinit_array_start, .)
 *(.preinit_array)
                0x000d6160                PROVIDE (__preinit_array_end, .)

.init_array     0x000d6160        0x8
                0x000d6160                PROVIDE (__init_array_start, .)
 *(SORT(.init_array.*))
 *(.init_array)
 .init_array    0x000d6160        0x4 /opt/hisi-linux-nptl/arm-hisiv100-linux/bin/../lib/gcc/arm-hisiv100-linux-uclibcgnueabi/4.4.1/crtbegin.o
 .init_array    0x000d6164        0x4 /home/liuboyuan/workspace/Hi3518_SDK_V1.0.8.0/mpp/3516C_src/base/base_rtp.o
                0x000d6168                PROVIDE (__init_array_end, .)

.fini_array     0x000d6168        0x4
                0x000d6168                PROVIDE (__fini_array_start, .)
 *(SORT(.fini_array.*))
 *(.fini_array)
 .fini_array    0x000d6168        0x4 /opt/hisi-linux-nptl/arm-hisiv100-linux/bin/../lib/gcc/arm-hisiv100-linux-uclibcgnueabi/4.4.1/crtbegin.o
                0x000d616c                PROVIDE (__fini_array_end, .)

.ctors
 *crtbegin.o(.ctors)
 *crtbegin?.o(.ctors)
 *(EXCLUDE_FILE(*crtend?.o *crtend.o) .ctors)
 *(SORT(.ctors.*))
 *(.ctors)

.dtors
 *crtbegin.o(.dtors)
 *crtbegin?.o(.dtors)
 *(EXCLUDE_FILE(*crtend?.o *crtend.o) .dtors)
 *(SORT(.dtors.*))
 *(.dtors)

.jcr            0x000d616c        0x4
 *(.jcr)
 .jcr           0x000d616c        0x0 /opt/hisi-linux-nptl/arm-hisiv100-linux/bin/../lib/gcc/arm-hisiv100-linux-uclibcgnueabi/4.4.1/crtbegin.o
 .jcr           0x000d616c        0x4 /opt/hisi-linux-nptl/arm-hisiv100-linux/bin/../lib/gcc/arm-hisiv100-linux-uclibcgnueabi/4.4.1/crtend.o

.data.rel.ro    0x000d6170       0x84
 *(.data.rel.ro.local* .gnu.linkonce.d.rel.ro.local.*)
 .data.rel.ro.local
                0x000d6170       0x3c /home/liuboyuan/workspace/Hi3518_SDK_V1.0.8.0/mpp/lib/libVoiceEngine.a(g726_optimize.o)
 .data.rel.ro.local
                0x000d61ac       0x48 /home/liuboyuan/workspace/Hi3518_SDK_V1.0.8.0/mpp/lib/libresampler.a(resampler2X.o)
 *(.data.rel.ro* .gnu.linkonce.d.rel.ro.*)

.dynamic        0x000d61f4      0x118
 *(.dynamic)
 .dynamic       0x000d61f4      0x118 /opt/hisi-linux-nptl/arm-hisiv100-linux/bin/../target/lib/libpthread.so.0
                0x000d61f4                _DYNAMIC
                0x000d630c                . = (. DATA_SEGMENT_RELRO_END 0x0)

.got            0x000d630c      0x434
 *(.got.plt)
 .got.plt       0x000d630c      0x2d4 /opt/hisi-linux-nptl/arm-hisiv100-linux/bin/../target/lib/libpthread.so.0
                0x000d630c                _GLOBAL_OFFSET_TABLE_
 *(.igot.plt)
 *(.got)
 .got           0x000d65e0      0x160 /opt/hisi-linux-nptl/arm-hisiv100-linux/bin/../target/lib/libpthread.so.0
 *(.igot)

.data           0x000d6740     0x3bc8
                0x000d6740                __data_start = .
 *(.data .data.* .gnu.linkonce.d.*)
 .data          0x000d6740        0x4 /opt/hisi-linux-nptl/arm-hisiv100-linux/bin/../target/usr/lib/crt1.o
                0x000d6740                data_start
 .data          0x000d6744        0x0 /opt/hisi-linux-nptl/arm-hisiv100-linux/bin/../target/usr/lib/crti.o
 .data          0x000d6744        0x4 /opt/hisi-linux-nptl/arm-hisiv100-linux/bin/../lib/gcc/arm-hisiv100-linux-uclibcgnueabi/4.4.1/crtbegin.o
                0x000d6744                __dso_handle
 .data          0x000d6748        0x4 ipc_main.o
                0x000d6748                gpSDPath
 .data          0x000d674c        0x0 /home/liuboyuan/workspace/Hi3518_SDK_V1.0.8.0/mpp/3516C_src/base/base_rtp.o
 .data          0x000d674c        0x0 /home/liuboyuan/workspace/Hi3518_SDK_V1.0.8.0/mpp/3516C_src/base/base_api_ledctl.o
 .data          0x000d674c        0x0 /home/liuboyuan/workspace/Hi3518_SDK_V1.0.8.0/mpp/3516C_src/base/base_AVMsgManagement.o
 .data          0x000d674c        0x0 /home/liuboyuan/workspace/Hi3518_SDK_V1.0.8.0/mpp/3516C_src/base/base_comm_isp.o
 .data          0x000d674c        0x0 /home/liuboyuan/workspace/Hi3518_SDK_V1.0.8.0/mpp/3516C_src/base/base_comm_sys.o
 .data          0x000d674c        0x0 /home/liuboyuan/workspace/Hi3518_SDK_V1.0.8.0/mpp/3516C_src/base/base_comm_venc.o
 .data          0x000d674c      0x740 /home/liuboyuan/workspace/Hi3518_SDK_V1.0.8.0/mpp/3516C_src/base/base_comm_vi.o
                0x000d674c                DEV_ATTR_BT656D1_1MUX
                0x000d67bc                DEV_ATTR_AR0130_DC_720P
                0x000d682c                DEV_ATTR_OV9712_DC_720P
                0x000d689c                DEV_ATTR_OV2710_DC_1080P
                0x000d690c                DEV_ATTR_SOIH22_DC_720P
                0x000d697c                DEV_ATTR_HIMAX1375_DC_720P
                0x000d69ec                DEV_ATTR_IMX122_DC_1080P
                0x000d6a5c                DEV_ATTR_MT9P006_DC_1080P
                0x000d6acc                DEV_ATTR_AR0330_DC_1080P
                0x000d6b3c                DEV_ATTR_IMX236_DC_1080P
                0x000d6bac                DEV_ATTR_PO3100K_DC_720P
                0x000d6c1c                CHN_ATTR_1920x1080_422
                0x000d6c50                CHN_ATTR_860x540_422
                0x000d6c84                CHN_ATTR_1280x720_422
                0x000d6cb8                CHN_ATTR_640x360_422
                0x000d6cec                CHN_ATTR_1280x720_420
                0x000d6d20                CHN_ATTR_720x576_422
                0x000d6d54                CHN_ATTR_720x576_420
                0x000d6d88                CHN_ATTR_360x288_422
                0x000d6dbc                CHN_ATTR_360x288_420
                0x000d6df0                CHN_ATTR_16x16_422
                0x000d6e24                CHN_ATTR_960x576_422
                0x000d6e58                CHN_ATTR_480x288_422
 .data          0x000d6e8c        0x0 /home/liuboyuan/workspace/Hi3518_SDK_V1.0.8.0/mpp/3516C_src/base/base_comm_vpss.o
 .data          0x000d6e8c        0x0 /home/liuboyuan/workspace/Hi3518_SDK_V1.0.8.0/mpp/3516C_src/base/base_ircut_ctl.o
 .data          0x000d6e8c       0x80 /home/liuboyuan/workspace/Hi3518_SDK_V1.0.8.0/mpp/3516C_src/base/base_loadbmp.o
                0x000d6e8c                s_OSDCompInfo
 .data          0x000d6f0c       0x3c /home/liuboyuan/workspace/Hi3518_SDK_V1.0.8.0/mpp/3516C_src/base/base_mw_boardinterface.o
 .data          0x000d6f48        0x0 /home/liuboyuan/workspace/Hi3518_SDK_V1.0.8.0/mpp/3516C_src/base/base_mw_filesort.o
 .data          0x000d6f48        0x0 /home/liuboyuan/workspace/Hi3518_SDK_V1.0.8.0/mpp/3516C_src/base/base_mw_modechange.o
 .data          0x000d6f48      0x238 /home/liuboyuan/workspace/Hi3518_SDK_V1.0.8.0/mpp/3516C_src/base/base_mw_osd.o
                0x000d6f48                ulOSDCharTbl
                0x000d6f4c                ucOSDColorTbl
                0x000d6f80                ascii_table_16_24
 .data          0x000d7180       0x24 /home/liuboyuan/workspace/Hi3518_SDK_V1.0.8.0/mpp/3516C_src/base/base_mw_overlay.o
                0x000d7180                lHandleFirst
                0x000d718c                lCoordinateFirst
                0x000d7198                gsHandle
 .data          0x000d71a4        0x0 /home/liuboyuan/workspace/Hi3518_SDK_V1.0.8.0/mpp/3516C_src/base/base_mw_region.o
 .data          0x000d71a4        0x0 /home/liuboyuan/workspace/Hi3518_SDK_V1.0.8.0/mpp/3516C_src/base/base_mw_sd.o
 .data          0x000d71a4        0x0 /home/liuboyuan/workspace/Hi3518_SDK_V1.0.8.0/mpp/3516C_src/base/base_mw_snap.o
 .data          0x000d71a4        0x0 /home/liuboyuan/workspace/Hi3518_SDK_V1.0.8.0/mpp/3516C_src/base/base_mw_subcard.o
 .data          0x000d71a4       0x80 /home/liuboyuan/workspace/Hi3518_SDK_V1.0.8.0/mpp/3516C_src/base/base_mw_subcard_rec.o
                0x000d71a4                gcTargetFileInfo
                0x000d71e4                gcMountInfo
 .data          0x000d7224        0x0 /home/liuboyuan/workspace/Hi3518_SDK_V1.0.8.0/mpp/3516C_src/base/base_mw_time.o
 .data          0x000d7224        0x0 /home/liuboyuan/workspace/Hi3518_SDK_V1.0.8.0/mpp/3516C_src/base/base_mw_wifi.o
 .data          0x000d7224        0x0 /home/liuboyuan/workspace/Hi3518_SDK_V1.0.8.0/mpp/3516C_src/base/base_util_mux_imple_mpegts.o
 .data          0x000d7224        0x0 /home/liuboyuan/workspace/Hi3518_SDK_V1.0.8.0/mpp/3516C_src/base/base_venc_control.o
 .data          0x000d7224        0x0 /home/liuboyuan/workspace/Hi3518_SDK_V1.0.8.0/mpp/3516C_src/base/base_venc_dataconsume.o
 .data          0x000d7224        0x0 /home/liuboyuan/workspace/Hi3518_SDK_V1.0.8.0/mpp/3516C_src/base/base_venc_handle.o
 .data          0x000d7224        0x0 /home/liuboyuan/workspace/Hi3518_SDK_V1.0.8.0/mpp/3516C_src/ctrl/ctrl_api_button.o
 .data          0x000d7224        0x0 /home/liuboyuan/workspace/Hi3518_SDK_V1.0.8.0/mpp/3516C_src/ctrl/ctrl_cmdPreHanle.o
 .data          0x000d7224        0x0 /home/liuboyuan/workspace/Hi3518_SDK_V1.0.8.0/mpp/3516C_src/ctrl/ctrl_guiReq.o
 .data          0x000d7224        0x0 /home/liuboyuan/workspace/Hi3518_SDK_V1.0.8.0/mpp/3516C_src/ctrl/ctrl_interactiveCtl.o
 .data          0x000d7224        0x0 /home/liuboyuan/workspace/Hi3518_SDK_V1.0.8.0/mpp/3516C_src/ctrl/ctrl_reqResponse.o
 .data          0x000d7224       0x58 /home/liuboyuan/workspace/Hi3518_SDK_V1.0.8.0/mpp/3516C_src/ctrl/ctrl_terminalReq.o
                0x000d7224                pcINFO
                0x000d7278                psPostHandle
 .data          0x000d727c       0x38 /home/liuboyuan/workspace/Hi3518_SDK_V1.0.8.0/mpp/3516C_src/ctrl/ctrl_uart_getCommand.o
 .data          0x000d72b4        0x0 /home/liuboyuan/workspace/Hi3518_SDK_V1.0.8.0/mpp/3516C_src/ctrl/ctrl_uartReq.o
 .data          0x000d72b4       0x38 /home/liuboyuan/workspace/Hi3518_SDK_V1.0.8.0/mpp/3516C_src/ctrl/ctrl_uartReq_parseCommand.o
                0x000d72b4                sCommandSet
 .data          0x000d72ec        0x0 /home/liuboyuan/workspace/Hi3518_SDK_V1.0.8.0/mpp/3516C_src/ctrl/CTRL_UARTREQ_PARSECOMMAND_Common.o
 .data          0x000d72ec        0x0 /home/liuboyuan/workspace/Hi3518_SDK_V1.0.8.0/mpp/3516C_src/ctrl/CTRL_UARTREQ_PARSECOMMAND_EMPTY.o
 .data          0x000d72ec        0x8 /home/liuboyuan/workspace/Hi3518_SDK_V1.0.8.0/mpp/3516C_src/ctrl/CTRL_UARTREQ_PARSECOMMAND_INTER.o
                0x000d72f0                slDelterTimeMax
 .data          0x000d72f4        0xc /home/liuboyuan/workspace/Hi3518_SDK_V1.0.8.0/mpp/3516C_src/ctrl/CTRL_UARTREQ_PARSECOMMAND_LED.o
 .data          0x000d7300        0x0 /home/liuboyuan/workspace/Hi3518_SDK_V1.0.8.0/mpp/3516C_src/ctrl/CTRL_UARTREQ_PARSECOMMAND_QUIT.o
 .data          0x000d7300        0x0 /home/liuboyuan/workspace/Hi3518_SDK_V1.0.8.0/mpp/3516C_src/ctrl/CTRL_UARTREQ_PARSECOMMAND_SNAP.o
 .data          0x000d7300        0x8 /home/liuboyuan/workspace/Hi3518_SDK_V1.0.8.0/mpp/3516C_src/ctrl/CTRL_UARTREQ_PARSECOMMAND_TIME.o
 .data          0x000d7308        0x0 /home/liuboyuan/workspace/Hi3518_SDK_V1.0.8.0/mpp/3516C_src/ctrl/CTRL_UARTREQ_PARSECOMMAND_WIFI.o
 .data          0x000d7308        0x0 /home/liuboyuan/workspace/Hi3518_SDK_V1.0.8.0/mpp/3516C_src/ctrl/ctrl_uartReq_saveReq.o
 .data          0x000d7308        0x0 /home/liuboyuan/workspace/Hi3518_SDK_V1.0.8.0/mpp/3516C_src/common/comm_command.o
 .data          0x000d7308        0x0 /home/liuboyuan/workspace/Hi3518_SDK_V1.0.8.0/mpp/3516C_src/common/comm_conditionFlag.o
 .data          0x000d7308        0x0 /home/liuboyuan/workspace/Hi3518_SDK_V1.0.8.0/mpp/3516C_src/common/comm_dd_adc.o
 .data          0x000d7308        0x0 /home/liuboyuan/workspace/Hi3518_SDK_V1.0.8.0/mpp/3516C_src/common/comm_dd_button.o
 .data          0x000d7308        0x0 /home/liuboyuan/workspace/Hi3518_SDK_V1.0.8.0/mpp/3516C_src/common/comm_dd_ircut.o
 .data          0x000d7308        0x0 /home/liuboyuan/workspace/Hi3518_SDK_V1.0.8.0/mpp/3516C_src/common/comm_dd_uart.o
 .data          0x000d7308        0x4 /home/liuboyuan/workspace/Hi3518_SDK_V1.0.8.0/mpp/3516C_src/common/comm_debug.o
 .data          0x000d730c        0x0 /home/liuboyuan/workspace/Hi3518_SDK_V1.0.8.0/mpp/3516C_src/common/comm_fileSort.o
 .data          0x000d730c        0x0 /home/liuboyuan/workspace/Hi3518_SDK_V1.0.8.0/mpp/3516C_src/common/comm_fileSystem.o
 .data          0x000d730c        0x0 /home/liuboyuan/workspace/Hi3518_SDK_V1.0.8.0/mpp/3516C_src/common/comm_iplist.o
 .data          0x000d730c        0x0 /home/liuboyuan/workspace/Hi3518_SDK_V1.0.8.0/mpp/3516C_src/common/comm_list.o
 .data          0x000d730c        0x0 /home/liuboyuan/workspace/Hi3518_SDK_V1.0.8.0/mpp/3516C_src/common/comm_mw_led.o
 .data          0x000d730c        0x0 /home/liuboyuan/workspace/Hi3518_SDK_V1.0.8.0/mpp/3516C_src/common/comm_mw_strpool.o
 .data          0x000d730c        0x0 /home/liuboyuan/workspace/Hi3518_SDK_V1.0.8.0/mpp/3516C_src/common/comm_mw_time.o
 .data          0x000d730c        0x0 /home/liuboyuan/workspace/Hi3518_SDK_V1.0.8.0/mpp/3516C_src/common/comm_mw_vfile.o
 .data          0x000d730c        0x0 /home/liuboyuan/workspace/Hi3518_SDK_V1.0.8.0/mpp/3516C_src/common/comm_net.o
 .data          0x000d730c        0xc /home/liuboyuan/workspace/Hi3518_SDK_V1.0.8.0/mpp/3516C_src/common/comm_parameters.o
 .data          0x000d7318        0x0 /home/liuboyuan/workspace/Hi3518_SDK_V1.0.8.0/mpp/3516C_src/common/comm_pipe.o
 .data          0x000d7318        0x0 /home/liuboyuan/workspace/Hi3518_SDK_V1.0.8.0/mpp/3516C_src/common/comm_pool.o
 .data          0x000d7318        0x0 /home/liuboyuan/workspace/Hi3518_SDK_V1.0.8.0/mpp/3516C_src/common/comm_pool_payload.o
 .data          0x000d7318        0x0 /home/liuboyuan/workspace/Hi3518_SDK_V1.0.8.0/mpp/3516C_src/common/comm_queue.o
 .data          0x000d7318        0x0 /home/liuboyuan/workspace/Hi3518_SDK_V1.0.8.0/mpp/3516C_src/common/comm_sharemem.o
 .data          0x000d7318        0x0 /home/liuboyuan/workspace/Hi3518_SDK_V1.0.8.0/mpp/3516C_src/common/comm_spaceSafer.o
 .data          0x000d7318        0x0 /home/liuboyuan/workspace/Hi3518_SDK_V1.0.8.0/mpp/3516C_src/common/comm_stream.o
 .data          0x000d7318        0x0 /home/liuboyuan/workspace/Hi3518_SDK_V1.0.8.0/mpp/3516C_src/common/comm_string.o
 .data          0x000d7318        0x0 /home/liuboyuan/workspace/Hi3518_SDK_V1.0.8.0/mpp/3516C_src/common/comm_timer.o
 .data          0x000d7318        0x0 /home/liuboyuan/workspace/Hi3518_SDK_V1.0.8.0/mpp/3516C_src/common/comm_util.o
 .data          0x000d7318        0x4 /home/liuboyuan/workspace/Hi3518_SDK_V1.0.8.0/mpp/lib/libmpi.a(mpi_region.o)
 .data          0x000d731c       0x30 /home/liuboyuan/workspace/Hi3518_SDK_V1.0.8.0/mpp/lib/libmpi.a(mpi_sys.o)
                0x000d7348                s_s32LogFd
 .data          0x000d734c        0x4 /home/liuboyuan/workspace/Hi3518_SDK_V1.0.8.0/mpp/lib/libmpi.a(mpi_vb.o)
 .data          0x000d7350        0x8 /home/liuboyuan/workspace/Hi3518_SDK_V1.0.8.0/mpp/lib/libmpi.a(mpi_venc.o)
                0x000d7354                s32VencMemFd
 .data          0x000d7358       0x48 /home/liuboyuan/workspace/Hi3518_SDK_V1.0.8.0/mpp/lib/libmpi.a(mpi_vi.o)
 .data          0x000d73a0     0x1200 /home/liuboyuan/workspace/Hi3518_SDK_V1.0.8.0/mpp/lib/libmpi.a(mpi_vpss.o)
 .data          0x000d85a0        0x0 /home/liuboyuan/workspace/Hi3518_SDK_V1.0.8.0/mpp/lib/libmpi.a(sys_bind.o)
 .data          0x000d85a0        0x0 /home/liuboyuan/workspace/Hi3518_SDK_V1.0.8.0/mpp/lib/libmpi.a(mpi_adec.o)
 .data          0x000d85a0        0x0 /home/liuboyuan/workspace/Hi3518_SDK_V1.0.8.0/mpp/lib/libmpi.a(mpi_aenc.o)
 .data          0x000d85a0        0x0 /home/liuboyuan/workspace/Hi3518_SDK_V1.0.8.0/mpp/lib/libmpi.a(mpi_ai.o)
 .data          0x000d85a0        0x8 /home/liuboyuan/workspace/Hi3518_SDK_V1.0.8.0/mpp/lib/libmpi.a(mpi_ao.o)
 .data          0x000d85a8        0x8 /home/liuboyuan/workspace/Hi3518_SDK_V1.0.8.0/mpp/lib/libmpi.a(audio_comm.o)
 .data          0x000d85b0        0x0 /home/liuboyuan/workspace/Hi3518_SDK_V1.0.8.0/mpp/lib/libmpi.a(audio_voice_adp.o)
 .data          0x000d85b0      0xc18 /home/liuboyuan/workspace/Hi3518_SDK_V1.0.8.0/mpp/lib/libisp.a(mpi_isp.o)
 .data          0x000d91c8       0x34 /home/liuboyuan/workspace/Hi3518_SDK_V1.0.8.0/mpp/lib/libisp.a(mpi_isp_entry.o)
 .data          0x000d91fc        0x0 /home/liuboyuan/workspace/Hi3518_SDK_V1.0.8.0/mpp/lib/libisp.a(apical_color_management.o)
 .data          0x000d91fc        0x0 /home/liuboyuan/workspace/Hi3518_SDK_V1.0.8.0/mpp/lib/libisp.a(apical_isp_defaults.o)
 .data          0x000d91fc        0x0 /home/liuboyuan/workspace/Hi3518_SDK_V1.0.8.0/mpp/lib/libisp.a(apical_isp_system_control.o)
 .data          0x000d91fc        0x0 /home/liuboyuan/workspace/Hi3518_SDK_V1.0.8.0/mpp/lib/libisp.a(apical_noise_reduction.o)
 .data          0x000d91fc        0x0 /home/liuboyuan/workspace/Hi3518_SDK_V1.0.8.0/mpp/lib/libisp.a(apical_sharpening.o)
 .data          0x000d91fc        0x0 /home/liuboyuan/workspace/Hi3518_SDK_V1.0.8.0/mpp/lib/libisp.a(hi_regwr.o)
 .data          0x000d91fc        0x0 /home/liuboyuan/workspace/Hi3518_SDK_V1.0.8.0/mpp/lib/libisp.a(hisi_isp_debug.o)
 .data          0x000d91fc        0x0 /home/liuboyuan/workspace/Hi3518_SDK_V1.0.8.0/mpp/lib/libisp.a(hisi_isp_proc.o)
 .data          0x000d91fc        0x0 /home/liuboyuan/workspace/Hi3518_SDK_V1.0.8.0/mpp/lib/libisp.a(math_utils.o)
 .data          0x000d91fc        0x0 /home/liuboyuan/workspace/Hi3518_SDK_V1.0.8.0/mpp/lib/libisp.a(apical_auto_wb.o)
 .data          0x000d91fc        0xc /home/liuboyuan/workspace/Hi3518_SDK_V1.0.8.0/mpp/lib/libisp.a(apical_isp.o)
 .data          0x000d9208        0x4 /home/liuboyuan/workspace/Hi3518_SDK_V1.0.8.0/mpp/lib/libisp.a(apical_new_antifog.o)
                0x000d9208                g_s32ViFd
 .data          0x000d920c        0x0 /home/liuboyuan/workspace/Hi3518_SDK_V1.0.8.0/mpp/lib/libisp.a(apical_pixel_calibration.o)
 .data          0x000d920c        0x4 /home/liuboyuan/workspace/Hi3518_SDK_V1.0.8.0/mpp/lib/libisp.a(apical_pregamma.o)
 .data          0x000d9210      0x148 /home/liuboyuan/workspace/Hi3518_SDK_V1.0.8.0/mpp/lib/libisp.a(awb_fw.o)
                0x000d9210                awb_ColorTemp
                0x000d9214                awb_calib_param
                0x000d9330                vegParams
                0x000d9348                pre_gain
 .data          0x000d9358        0x0 /home/liuboyuan/workspace/Hi3518_SDK_V1.0.8.0/mpp/lib/libisp.a(Apical_antifog.o)
 .data          0x000d9358        0x0 /home/liuboyuan/workspace/Hi3518_SDK_V1.0.8.0/mpp/lib/libisp.a(apical_auto_exposure.o)
 .data          0x000d9358        0x0 /home/liuboyuan/workspace/Hi3518_SDK_V1.0.8.0/mpp/lib/libisp.a(apical_exposure_cmos.o)
 .data          0x000d9358        0x0 /home/liuboyuan/workspace/Hi3518_SDK_V1.0.8.0/mpp/lib/libisp.a(apical_gamma_init.o)
 .data          0x000d9358        0x0 /home/liuboyuan/workspace/Hi3518_SDK_V1.0.8.0/mpp/lib/libisp.a(apical_iridix_control.o)
 .data          0x000d9358        0x0 /home/liuboyuan/workspace/Hi3518_SDK_V1.0.8.0/mpp/lib/libisp.a(apical_iris_control.o)
 .data          0x000d9358       0x58 /home/liuboyuan/workspace/Hi3518_SDK_V1.0.8.0/mpp/lib/libsns_imx122.a(imx122_cmos.o)
 .data          0x000d93b0        0x0 /home/liuboyuan/workspace/Hi3518_SDK_V1.0.8.0/mpp/lib/libsns_imx122.a(imx122_sensor_ctl.o)
 .data          0x000d93b0        0x0 /home/liuboyuan/workspace/Hi3518_SDK_V1.0.8.0/mpp/lib/libVoiceEngine.a(voice.o)
 .data          0x000d93b0        0x0 /home/liuboyuan/workspace/Hi3518_SDK_V1.0.8.0/mpp/lib/libVoiceEngine.a(adpcm.o)
 .data          0x000d93b0        0x0 /home/liuboyuan/workspace/Hi3518_SDK_V1.0.8.0/mpp/lib/libVoiceEngine.a(encode72616k.o)
 .data          0x000d93b0      0x800 /home/liuboyuan/workspace/Hi3518_SDK_V1.0.8.0/mpp/lib/libVoiceEngine.a(g711func.o)
                0x000d93b0                a2u_table
                0x000d95b0                u2a_table
                0x000d97b0                a2l_table
                0x000d99b0                u2l_table
 .data          0x000d9bb0        0x0 /home/liuboyuan/workspace/Hi3518_SDK_V1.0.8.0/mpp/lib/libVoiceEngine.a(g726_optimize.o)
 .data          0x000d9bb0       0x10 /home/liuboyuan/workspace/Hi3518_SDK_V1.0.8.0/mpp/lib/libVoiceEngine.a(g726_sub.o)
                0x000d9bb0                dequant_tab
                0x000d9bb8                fik_tab
                0x000d9bbc                wik_tab
 .data          0x000d9bc0        0x0 /home/liuboyuan/workspace/Hi3518_SDK_V1.0.8.0/mpp/lib/libVoiceEngine.a(encode726.o)
 .data          0x000d9bc0        0x0 /home/liuboyuan/workspace/Hi3518_SDK_V1.0.8.0/mpp/lib/libaec.a(echowrap.o)
 .data          0x000d9bc0        0x0 /home/liuboyuan/workspace/Hi3518_SDK_V1.0.8.0/mpp/lib/libaec.a(mdf.o)
 .data          0x000d9bc0        0x0 /home/liuboyuan/workspace/Hi3518_SDK_V1.0.8.0/mpp/lib/libaec.a(preprocess.o)
 .data          0x000d9bc0        0x0 /home/liuboyuan/workspace/Hi3518_SDK_V1.0.8.0/mpp/lib/libaec.a(aec_rom.o)
 .data          0x000d9bc0        0x0 /home/liuboyuan/workspace/Hi3518_SDK_V1.0.8.0/mpp/lib/libaec.a(basic_gcc.o)
 .data          0x000d9bc0        0x0 /home/liuboyuan/workspace/Hi3518_SDK_V1.0.8.0/mpp/lib/libaec.a(basic_op.o)
 .data          0x000d9bc0        0x0 /home/liuboyuan/workspace/Hi3518_SDK_V1.0.8.0/mpp/lib/libaec.a(fftwrap.o)
 .data          0x000d9bc0        0x0 /home/liuboyuan/workspace/Hi3518_SDK_V1.0.8.0/mpp/lib/libaec.a(filterbank.o)
 .data          0x000d9bc0        0x0 /home/liuboyuan/workspace/Hi3518_SDK_V1.0.8.0/mpp/lib/libaec.a(kiss_fftr.o)
 .data          0x000d9bc0        0x0 /home/liuboyuan/workspace/Hi3518_SDK_V1.0.8.0/mpp/lib/libaec.a(math_approx.o)
 .data          0x000d9bc0        0x0 /home/liuboyuan/workspace/Hi3518_SDK_V1.0.8.0/mpp/lib/libaec.a(kiss_fft.o)
 .data          0x000d9bc0        0x0 /home/liuboyuan/workspace/Hi3518_SDK_V1.0.8.0/mpp/lib/libaec.a(kf_bfly4_fft.o)
 .data          0x000d9bc0        0x0 /home/liuboyuan/workspace/Hi3518_SDK_V1.0.8.0/mpp/lib/libaec.a(kf_bfly5_fft.o)
 .data          0x000d9bc0       0x2c /home/liuboyuan/workspace/Hi3518_SDK_V1.0.8.0/mpp/lib/libresampler.a(resampler_wrap.o)
 .data          0x000d9bec        0x0 /home/liuboyuan/workspace/Hi3518_SDK_V1.0.8.0/mpp/lib/libresampler.a(resampler.o)
 .data          0x000d9bec        0x0 /home/liuboyuan/workspace/Hi3518_SDK_V1.0.8.0/mpp/lib/libresampler.a(resample_v2.o)
 .data.rel      0x000d9bec      0x3c0 /home/liuboyuan/workspace/Hi3518_SDK_V1.0.8.0/mpp/lib/libresampler.a(resample_v2.o)
 .data          0x000d9fac       0x60 /home/liuboyuan/workspace/Hi3518_SDK_V1.0.8.0/mpp/lib/libresampler.a(linear_src.o)
 .data          0x000da00c      0x2fc /home/liuboyuan/workspace/Hi3518_SDK_V1.0.8.0/mpp/lib/libresampler.a(resampler2X.o)
 .data          0x000da308        0x0 /home/liuboyuan/workspace/Hi3518_SDK_V1.0.8.0/mpp/lib/libresampler.a(resample_rom.o)
 .data          0x000da308        0x0 /home/liuboyuan/workspace/Hi3518_SDK_V1.0.8.0/mpp/lib/libanr.a(anr_wrap.o)
 .data          0x000da308        0x0 /home/liuboyuan/workspace/Hi3518_SDK_V1.0.8.0/mpp/lib/libanr.a(anr_preprocess.o)
 .data          0x000da308        0x0 /home/liuboyuan/workspace/Hi3518_SDK_V1.0.8.0/mpp/lib/libanr.a(anr_basic_gcc.o)
 .data          0x000da308        0x0 /home/liuboyuan/workspace/Hi3518_SDK_V1.0.8.0/mpp/lib/libanr.a(anr_basic_op.o)
 .data          0x000da308        0x0 /home/liuboyuan/workspace/Hi3518_SDK_V1.0.8.0/mpp/lib/libanr.a(anr_fftwrap.o)
 .data          0x000da308        0x0 /home/liuboyuan/workspace/Hi3518_SDK_V1.0.8.0/mpp/lib/libanr.a(anr_filterbank.o)
 .data          0x000da308        0x0 /home/liuboyuan/workspace/Hi3518_SDK_V1.0.8.0/mpp/lib/libanr.a(anr_kiss_fftr.o)
 .data          0x000da308        0x0 /home/liuboyuan/workspace/Hi3518_SDK_V1.0.8.0/mpp/lib/libanr.a(anr_math_approx.o)
 .data          0x000da308        0x0 /home/liuboyuan/workspace/Hi3518_SDK_V1.0.8.0/mpp/lib/libanr.a(anr_kiss_fft.o)
 .data          0x000da308        0x0 /home/liuboyuan/workspace/Hi3518_SDK_V1.0.8.0/mpp/lib/libanr.a(anr_kf_bfly4_fft.o)
 .data          0x000da308        0x0 /home/liuboyuan/workspace/Hi3518_SDK_V1.0.8.0/mpp/lib/libanr.a(anr_kf_bfly5_fft.o)
 .data          0x000da308        0x0 /opt/hisi-linux-nptl/arm-hisiv100-linux/bin/../lib/gcc/arm-hisiv100-linux-uclibcgnueabi/4.4.1/crtend.o
 .data          0x000da308        0x0 /opt/hisi-linux-nptl/arm-hisiv100-linux/bin/../target/usr/lib/crtn.o

.data1
 *(.data1)
                0x000da308                _edata = .
                0x000da308                PROVIDE (edata, .)
                0x000da308                __bss_start = .
                0x000da308                __bss_start__ = .

.bss            0x000da308    0x598ac
 *(.dynbss)
 .dynbss        0x000da308       0x84 /opt/hisi-linux-nptl/arm-hisiv100-linux/bin/../target/lib/libpthread.so.0
                0x000da308                _ZTV14RTPIPv4Address
                0x000da324                stdout
                0x000da328                stderr
                0x000da330                _ZTVN10__cxxabiv117__class_type_infoE
                0x000da35c                stdin
                0x000da360                _ZTVN10__cxxabiv120__si_class_type_infoE
 *(.bss .bss.* .gnu.linkonce.b.*)
 .bss           0x000da38c        0x0 /opt/hisi-linux-nptl/arm-hisiv100-linux/bin/../target/usr/lib/crt1.o
 .bss           0x000da38c        0x0 /opt/hisi-linux-nptl/arm-hisiv100-linux/bin/../target/usr/lib/crti.o
 .bss           0x000da38c        0x1 /opt/hisi-linux-nptl/arm-hisiv100-linux/bin/../lib/gcc/arm-hisiv100-linux-uclibcgnueabi/4.4.1/crtbegin.o
 .bss           0x000da38d        0x0 ipc_main.o
 *fill*         0x000da38d        0x3 00
 .bss           0x000da390      0x820 /home/liuboyuan/workspace/Hi3518_SDK_V1.0.8.0/mpp/3516C_src/base/base_rtp.o
                0x000da394                mutStringPoolWt
                0x000da3ac                muxPara
                0x000da3c4                eCOMM_PIPE_TYPE
                0x000da3c8                glReqId
                0x000da3cc                sMutReqId
                0x000da3e8                sPoolInfo
                0x000dab40                gsTimerList
                0x000dab60                psTimerNode
 .bss           0x000dabb0        0x0 /home/liuboyuan/workspace/Hi3518_SDK_V1.0.8.0/mpp/3516C_src/base/base_api_ledctl.o
 .bss           0x000dabb0        0x0 /home/liuboyuan/workspace/Hi3518_SDK_V1.0.8.0/mpp/3516C_src/base/base_AVMsgManagement.o
 .bss           0x000dabb0        0x8 /home/liuboyuan/workspace/Hi3518_SDK_V1.0.8.0/mpp/3516C_src/base/base_comm_isp.o
 .bss           0x000dabb8        0x0 /home/liuboyuan/workspace/Hi3518_SDK_V1.0.8.0/mpp/3516C_src/base/base_comm_sys.o
 .bss           0x000dabb8       0x10 /home/liuboyuan/workspace/Hi3518_SDK_V1.0.8.0/mpp/3516C_src/base/base_comm_venc.o
 .bss           0x000dabc8        0x0 /home/liuboyuan/workspace/Hi3518_SDK_V1.0.8.0/mpp/3516C_src/base/base_comm_vi.o
 .bss           0x000dabc8        0x0 /home/liuboyuan/workspace/Hi3518_SDK_V1.0.8.0/mpp/3516C_src/base/base_comm_vpss.o
 .bss           0x000dabc8        0x0 /home/liuboyuan/workspace/Hi3518_SDK_V1.0.8.0/mpp/3516C_src/base/base_ircut_ctl.o
 .bss           0x000dabc8        0x0 /home/liuboyuan/workspace/Hi3518_SDK_V1.0.8.0/mpp/3516C_src/base/base_loadbmp.o
 .bss           0x000dabc8       0x10 /home/liuboyuan/workspace/Hi3518_SDK_V1.0.8.0/mpp/3516C_src/base/base_mw_boardinterface.o
 .bss           0x000dabd8        0x8 /home/liuboyuan/workspace/Hi3518_SDK_V1.0.8.0/mpp/3516C_src/base/base_mw_filesort.o
                0x000dabd8                lUsedSize
                0x000dabdc                lTotalFileNum
 .bss           0x000dabe0        0x0 /home/liuboyuan/workspace/Hi3518_SDK_V1.0.8.0/mpp/3516C_src/base/base_mw_modechange.o
 .bss           0x000dabe0        0x0 /home/liuboyuan/workspace/Hi3518_SDK_V1.0.8.0/mpp/3516C_src/base/base_mw_osd.o
 .bss           0x000dabe0       0x30 /home/liuboyuan/workspace/Hi3518_SDK_V1.0.8.0/mpp/3516C_src/base/base_mw_overlay.o
                0x000dabe0                lChnID
                0x000dabec                glViRegNum
                0x000dabf8                lAbscissa
                0x000dac04                lOrdinate
 .bss           0x000dac10        0x4 /home/liuboyuan/workspace/Hi3518_SDK_V1.0.8.0/mpp/3516C_src/base/base_mw_region.o
 .bss           0x000dac14        0x0 /home/liuboyuan/workspace/Hi3518_SDK_V1.0.8.0/mpp/3516C_src/base/base_mw_sd.o
 .bss           0x000dac14        0x0 /home/liuboyuan/workspace/Hi3518_SDK_V1.0.8.0/mpp/3516C_src/base/base_mw_snap.o
 .bss           0x000dac14        0x0 /home/liuboyuan/workspace/Hi3518_SDK_V1.0.8.0/mpp/3516C_src/base/base_mw_subcard.o
 .bss           0x000dac14      0x430 /home/liuboyuan/workspace/Hi3518_SDK_V1.0.8.0/mpp/3516C_src/base/base_mw_subcard_rec.o
                0x000dac14                gsTwoFolder
                0x000db03c                glFolderIndex
                0x000db040                glFirSubCardInit
 .bss           0x000db044        0x0 /home/liuboyuan/workspace/Hi3518_SDK_V1.0.8.0/mpp/3516C_src/base/base_mw_time.o
 .bss           0x000db044        0x0 /home/liuboyuan/workspace/Hi3518_SDK_V1.0.8.0/mpp/3516C_src/base/base_mw_wifi.o
 .bss           0x000db044      0x400 /home/liuboyuan/workspace/Hi3518_SDK_V1.0.8.0/mpp/3516C_src/base/base_util_mux_imple_mpegts.o
 .bss           0x000db444      0x194 /home/liuboyuan/workspace/Hi3518_SDK_V1.0.8.0/mpp/3516C_src/base/base_venc_control.o
 .bss           0x000db5d8        0x0 /home/liuboyuan/workspace/Hi3518_SDK_V1.0.8.0/mpp/3516C_src/base/base_venc_dataconsume.o
 .bss           0x000db5d8        0x0 /home/liuboyuan/workspace/Hi3518_SDK_V1.0.8.0/mpp/3516C_src/base/base_venc_handle.o
 .bss           0x000db5d8        0x0 /home/liuboyuan/workspace/Hi3518_SDK_V1.0.8.0/mpp/3516C_src/ctrl/ctrl_api_button.o
 .bss           0x000db5d8        0x0 /home/liuboyuan/workspace/Hi3518_SDK_V1.0.8.0/mpp/3516C_src/ctrl/ctrl_cmdPreHanle.o
 .bss           0x000db5d8        0x0 /home/liuboyuan/workspace/Hi3518_SDK_V1.0.8.0/mpp/3516C_src/ctrl/ctrl_guiReq.o
 .bss           0x000db5d8        0x4 /home/liuboyuan/workspace/Hi3518_SDK_V1.0.8.0/mpp/3516C_src/ctrl/ctrl_interactiveCtl.o
                0x000db5d8                lFlag
 .bss           0x000db5dc        0x0 /home/liuboyuan/workspace/Hi3518_SDK_V1.0.8.0/mpp/3516C_src/ctrl/ctrl_reqResponse.o
 .bss           0x000db5dc      0x400 /home/liuboyuan/workspace/Hi3518_SDK_V1.0.8.0/mpp/3516C_src/ctrl/ctrl_terminalReq.o
 .bss           0x000db9dc        0x4 /home/liuboyuan/workspace/Hi3518_SDK_V1.0.8.0/mpp/3516C_src/ctrl/ctrl_uart_getCommand.o
 .bss           0x000db9e0        0x0 /home/liuboyuan/workspace/Hi3518_SDK_V1.0.8.0/mpp/3516C_src/ctrl/ctrl_uartReq.o
 .bss           0x000db9e0        0x0 /home/liuboyuan/workspace/Hi3518_SDK_V1.0.8.0/mpp/3516C_src/ctrl/ctrl_uartReq_parseCommand.o
 .bss           0x000db9e0        0x0 /home/liuboyuan/workspace/Hi3518_SDK_V1.0.8.0/mpp/3516C_src/ctrl/CTRL_UARTREQ_PARSECOMMAND_Common.o
 .bss           0x000db9e0        0x0 /home/liuboyuan/workspace/Hi3518_SDK_V1.0.8.0/mpp/3516C_src/ctrl/CTRL_UARTREQ_PARSECOMMAND_EMPTY.o
 .bss           0x000db9e0       0xcc /home/liuboyuan/workspace/Hi3518_SDK_V1.0.8.0/mpp/3516C_src/ctrl/CTRL_UARTREQ_PARSECOMMAND_INTER.o
 .bss           0x000dbaac        0x0 /home/liuboyuan/workspace/Hi3518_SDK_V1.0.8.0/mpp/3516C_src/ctrl/CTRL_UARTREQ_PARSECOMMAND_LED.o
 .bss           0x000dbaac        0x0 /home/liuboyuan/workspace/Hi3518_SDK_V1.0.8.0/mpp/3516C_src/ctrl/CTRL_UARTREQ_PARSECOMMAND_QUIT.o
 .bss           0x000dbaac        0x0 /home/liuboyuan/workspace/Hi3518_SDK_V1.0.8.0/mpp/3516C_src/ctrl/CTRL_UARTREQ_PARSECOMMAND_SNAP.o
 .bss           0x000dbaac        0x4 /home/liuboyuan/workspace/Hi3518_SDK_V1.0.8.0/mpp/3516C_src/ctrl/CTRL_UARTREQ_PARSECOMMAND_TIME.o
 .bss           0x000dbab0        0x0 /home/liuboyuan/workspace/Hi3518_SDK_V1.0.8.0/mpp/3516C_src/ctrl/CTRL_UARTREQ_PARSECOMMAND_WIFI.o
 .bss           0x000dbab0        0x0 /home/liuboyuan/workspace/Hi3518_SDK_V1.0.8.0/mpp/3516C_src/ctrl/ctrl_uartReq_saveReq.o
 .bss           0x000dbab0        0x0 /home/liuboyuan/workspace/Hi3518_SDK_V1.0.8.0/mpp/3516C_src/common/comm_command.o
 .bss           0x000dbab0        0x0 /home/liuboyuan/workspace/Hi3518_SDK_V1.0.8.0/mpp/3516C_src/common/comm_conditionFlag.o
 .bss           0x000dbab0        0x0 /home/liuboyuan/workspace/Hi3518_SDK_V1.0.8.0/mpp/3516C_src/common/comm_dd_adc.o
 .bss           0x000dbab0        0x0 /home/liuboyuan/workspace/Hi3518_SDK_V1.0.8.0/mpp/3516C_src/common/comm_dd_button.o
 .bss           0x000dbab0        0x0 /home/liuboyuan/workspace/Hi3518_SDK_V1.0.8.0/mpp/3516C_src/common/comm_dd_ircut.o
 .bss           0x000dbab0        0x0 /home/liuboyuan/workspace/Hi3518_SDK_V1.0.8.0/mpp/3516C_src/common/comm_dd_uart.o
 .bss           0x000dbab0        0x8 /home/liuboyuan/workspace/Hi3518_SDK_V1.0.8.0/mpp/3516C_src/common/comm_debug.o
 .bss           0x000dbab8       0x18 /home/liuboyuan/workspace/Hi3518_SDK_V1.0.8.0/mpp/3516C_src/common/comm_fileSort.o
                0x000dbab8                pFileSort_mutex
 .bss           0x000dbad0        0x8 /home/liuboyuan/workspace/Hi3518_SDK_V1.0.8.0/mpp/3516C_src/common/comm_fileSystem.o
 .bss           0x000dbad8        0x0 /home/liuboyuan/workspace/Hi3518_SDK_V1.0.8.0/mpp/3516C_src/common/comm_iplist.o
 .bss           0x000dbad8        0x0 /home/liuboyuan/workspace/Hi3518_SDK_V1.0.8.0/mpp/3516C_src/common/comm_list.o
 .bss           0x000dbad8        0x0 /home/liuboyuan/workspace/Hi3518_SDK_V1.0.8.0/mpp/3516C_src/common/comm_mw_led.o
 .bss           0x000dbad8        0xc /home/liuboyuan/workspace/Hi3518_SDK_V1.0.8.0/mpp/3516C_src/common/comm_mw_strpool.o
 .bss           0x000dbae4       0x18 /home/liuboyuan/workspace/Hi3518_SDK_V1.0.8.0/mpp/3516C_src/common/comm_mw_time.o
 .bss           0x000dbafc        0x0 /home/liuboyuan/workspace/Hi3518_SDK_V1.0.8.0/mpp/3516C_src/common/comm_mw_vfile.o
 .bss           0x000dbafc       0x18 /home/liuboyuan/workspace/Hi3518_SDK_V1.0.8.0/mpp/3516C_src/common/comm_net.o
 .bss           0x000dbb14        0x0 /home/liuboyuan/workspace/Hi3518_SDK_V1.0.8.0/mpp/3516C_src/common/comm_parameters.o
 .bss           0x000dbb14        0x0 /home/liuboyuan/workspace/Hi3518_SDK_V1.0.8.0/mpp/3516C_src/common/comm_pipe.o
 .bss           0x000dbb14        0x0 /home/liuboyuan/workspace/Hi3518_SDK_V1.0.8.0/mpp/3516C_src/common/comm_pool.o
 .bss           0x000dbb14        0x0 /home/liuboyuan/workspace/Hi3518_SDK_V1.0.8.0/mpp/3516C_src/common/comm_pool_payload.o
 .bss           0x000dbb14        0x0 /home/liuboyuan/workspace/Hi3518_SDK_V1.0.8.0/mpp/3516C_src/common/comm_queue.o
 .bss           0x000dbb14        0x0 /home/liuboyuan/workspace/Hi3518_SDK_V1.0.8.0/mpp/3516C_src/common/comm_sharemem.o
 .bss           0x000dbb14        0x0 /home/liuboyuan/workspace/Hi3518_SDK_V1.0.8.0/mpp/3516C_src/common/comm_spaceSafer.o
 .bss           0x000dbb14        0x0 /home/liuboyuan/workspace/Hi3518_SDK_V1.0.8.0/mpp/3516C_src/common/comm_stream.o
 .bss           0x000dbb14        0x0 /home/liuboyuan/workspace/Hi3518_SDK_V1.0.8.0/mpp/3516C_src/common/comm_string.o
 .bss           0x000dbb14        0x0 /home/liuboyuan/workspace/Hi3518_SDK_V1.0.8.0/mpp/3516C_src/common/comm_timer.o
 .bss           0x000dbb14        0x0 /home/liuboyuan/workspace/Hi3518_SDK_V1.0.8.0/mpp/3516C_src/common/comm_util.o
 .bss           0x000dbb14        0x0 /home/liuboyuan/workspace/Hi3518_SDK_V1.0.8.0/mpp/lib/libmpi.a(mpi_region.o)
 .bss           0x000dbb14       0x18 /home/liuboyuan/workspace/Hi3518_SDK_V1.0.8.0/mpp/lib/libmpi.a(mpi_sys.o)
 .bss           0x000dbb2c     0x2c00 /home/liuboyuan/workspace/Hi3518_SDK_V1.0.8.0/mpp/lib/libmpi.a(mpi_vb.o)
 .bss           0x000de72c      0xe04 /home/liuboyuan/workspace/Hi3518_SDK_V1.0.8.0/mpp/lib/libmpi.a(mpi_venc.o)
 .bss           0x000df530        0x0 /home/liuboyuan/workspace/Hi3518_SDK_V1.0.8.0/mpp/lib/libmpi.a(mpi_vi.o)
 .bss           0x000df530        0x0 /home/liuboyuan/workspace/Hi3518_SDK_V1.0.8.0/mpp/lib/libmpi.a(mpi_vpss.o)
 .bss           0x000df530      0x910 /home/liuboyuan/workspace/Hi3518_SDK_V1.0.8.0/mpp/lib/libmpi.a(sys_bind.o)
 .bss           0x000dfe40    0x41a70 /home/liuboyuan/workspace/Hi3518_SDK_V1.0.8.0/mpp/lib/libmpi.a(mpi_adec.o)
 .bss           0x001218b0     0x5570 /home/liuboyuan/workspace/Hi3518_SDK_V1.0.8.0/mpp/lib/libmpi.a(mpi_aenc.o)
 .bss           0x00126e20       0x90 /home/liuboyuan/workspace/Hi3518_SDK_V1.0.8.0/mpp/lib/libmpi.a(mpi_ai.o)
 .bss           0x00126eb0       0x64 /home/liuboyuan/workspace/Hi3518_SDK_V1.0.8.0/mpp/lib/libmpi.a(mpi_ao.o)
 .bss           0x00126f14        0x0 /home/liuboyuan/workspace/Hi3518_SDK_V1.0.8.0/mpp/lib/libmpi.a(audio_comm.o)
 .bss           0x00126f14        0x0 /home/liuboyuan/workspace/Hi3518_SDK_V1.0.8.0/mpp/lib/libmpi.a(audio_voice_adp.o)
 .bss           0x00126f14      0x29c /home/liuboyuan/workspace/Hi3518_SDK_V1.0.8.0/mpp/lib/libisp.a(mpi_isp.o)
                0x00126f14                stIspParaRec
 .bss           0x001271b0     0x1ff4 /home/liuboyuan/workspace/Hi3518_SDK_V1.0.8.0/mpp/lib/libisp.a(mpi_isp_entry.o)
                0x00128fb8                g_stSnsRegsInfo
 .bss           0x001291a4        0x0 /home/liuboyuan/workspace/Hi3518_SDK_V1.0.8.0/mpp/lib/libisp.a(apical_color_management.o)
 .bss           0x001291a4        0x0 /home/liuboyuan/workspace/Hi3518_SDK_V1.0.8.0/mpp/lib/libisp.a(apical_isp_defaults.o)
 .bss           0x001291a4        0x0 /home/liuboyuan/workspace/Hi3518_SDK_V1.0.8.0/mpp/lib/libisp.a(apical_isp_system_control.o)
 .bss           0x001291a4        0x0 /home/liuboyuan/workspace/Hi3518_SDK_V1.0.8.0/mpp/lib/libisp.a(apical_noise_reduction.o)
 .bss           0x001291a4        0x0 /home/liuboyuan/workspace/Hi3518_SDK_V1.0.8.0/mpp/lib/libisp.a(apical_sharpening.o)
 .bss           0x001291a4        0xc /home/liuboyuan/workspace/Hi3518_SDK_V1.0.8.0/mpp/lib/libisp.a(hi_regwr.o)
 .bss           0x001291b0        0x0 /home/liuboyuan/workspace/Hi3518_SDK_V1.0.8.0/mpp/lib/libisp.a(hisi_isp_debug.o)
 .bss           0x001291b0        0x8 /home/liuboyuan/workspace/Hi3518_SDK_V1.0.8.0/mpp/lib/libisp.a(hisi_isp_proc.o)
                0x001291b0                g_u32IntCount
                0x001291b4                g_u32ProcParam
 .bss           0x001291b8        0x0 /home/liuboyuan/workspace/Hi3518_SDK_V1.0.8.0/mpp/lib/libisp.a(math_utils.o)
 .bss           0x001291b8        0x0 /home/liuboyuan/workspace/Hi3518_SDK_V1.0.8.0/mpp/lib/libisp.a(apical_auto_wb.o)
 .bss           0x001291b8        0x8 /home/liuboyuan/workspace/Hi3518_SDK_V1.0.8.0/mpp/lib/libisp.a(apical_isp.o)
 .bss           0x001291c0        0x0 /home/liuboyuan/workspace/Hi3518_SDK_V1.0.8.0/mpp/lib/libisp.a(apical_new_antifog.o)
 .bss           0x001291c0        0x0 /home/liuboyuan/workspace/Hi3518_SDK_V1.0.8.0/mpp/lib/libisp.a(apical_pixel_calibration.o)
 .bss           0x001291c0        0x0 /home/liuboyuan/workspace/Hi3518_SDK_V1.0.8.0/mpp/lib/libisp.a(apical_pregamma.o)
 .bss           0x001291c0        0x0 /home/liuboyuan/workspace/Hi3518_SDK_V1.0.8.0/mpp/lib/libisp.a(awb_fw.o)
 .bss           0x001291c0        0x0 /home/liuboyuan/workspace/Hi3518_SDK_V1.0.8.0/mpp/lib/libisp.a(Apical_antifog.o)
 .bss           0x001291c0        0x0 /home/liuboyuan/workspace/Hi3518_SDK_V1.0.8.0/mpp/lib/libisp.a(apical_auto_exposure.o)
 .bss           0x001291c0        0x0 /home/liuboyuan/workspace/Hi3518_SDK_V1.0.8.0/mpp/lib/libisp.a(apical_exposure_cmos.o)
 .bss           0x001291c0        0x0 /home/liuboyuan/workspace/Hi3518_SDK_V1.0.8.0/mpp/lib/libisp.a(apical_gamma_init.o)
 .bss           0x001291c0        0x0 /home/liuboyuan/workspace/Hi3518_SDK_V1.0.8.0/mpp/lib/libisp.a(apical_iridix_control.o)
 .bss           0x001291c0        0x0 /home/liuboyuan/workspace/Hi3518_SDK_V1.0.8.0/mpp/lib/libisp.a(apical_iris_control.o)
 .bss           0x001291c0       0x88 /home/liuboyuan/workspace/Hi3518_SDK_V1.0.8.0/mpp/lib/libsns_imx122.a(imx122_cmos.o)
                0x00129244                gu8SensorMode
 .bss           0x00129248        0x0 /home/liuboyuan/workspace/Hi3518_SDK_V1.0.8.0/mpp/lib/libsns_imx122.a(imx122_sensor_ctl.o)
 .bss           0x00129248        0x0 /home/liuboyuan/workspace/Hi3518_SDK_V1.0.8.0/mpp/lib/libVoiceEngine.a(voice.o)
 .bss           0x00129248        0x0 /home/liuboyuan/workspace/Hi3518_SDK_V1.0.8.0/mpp/lib/libVoiceEngine.a(adpcm.o)
 .bss           0x00129248        0x0 /home/liuboyuan/workspace/Hi3518_SDK_V1.0.8.0/mpp/lib/libVoiceEngine.a(encode72616k.o)
 .bss           0x00129248        0x0 /home/liuboyuan/workspace/Hi3518_SDK_V1.0.8.0/mpp/lib/libVoiceEngine.a(g711func.o)
 .bss           0x00129248        0x0 /home/liuboyuan/workspace/Hi3518_SDK_V1.0.8.0/mpp/lib/libVoiceEngine.a(g726_optimize.o)
 .bss           0x00129248        0x0 /home/liuboyuan/workspace/Hi3518_SDK_V1.0.8.0/mpp/lib/libVoiceEngine.a(g726_sub.o)
 .bss           0x00129248        0x0 /home/liuboyuan/workspace/Hi3518_SDK_V1.0.8.0/mpp/lib/libVoiceEngine.a(encode726.o)
 .bss           0x00129248        0x0 /home/liuboyuan/workspace/Hi3518_SDK_V1.0.8.0/mpp/lib/libaec.a(echowrap.o)
 .bss           0x00129248        0x0 /home/liuboyuan/workspace/Hi3518_SDK_V1.0.8.0/mpp/lib/libaec.a(mdf.o)
 .bss           0x00129248        0x0 /home/liuboyuan/workspace/Hi3518_SDK_V1.0.8.0/mpp/lib/libaec.a(preprocess.o)
 .bss           0x00129248        0x0 /home/liuboyuan/workspace/Hi3518_SDK_V1.0.8.0/mpp/lib/libaec.a(aec_rom.o)
 .bss           0x00129248        0x0 /home/liuboyuan/workspace/Hi3518_SDK_V1.0.8.0/mpp/lib/libaec.a(basic_gcc.o)
 .bss           0x00129248        0x0 /home/liuboyuan/workspace/Hi3518_SDK_V1.0.8.0/mpp/lib/libaec.a(basic_op.o)
 .bss           0x00129248        0x0 /home/liuboyuan/workspace/Hi3518_SDK_V1.0.8.0/mpp/lib/libaec.a(fftwrap.o)
 .bss           0x00129248        0x0 /home/liuboyuan/workspace/Hi3518_SDK_V1.0.8.0/mpp/lib/libaec.a(filterbank.o)
 .bss           0x00129248        0x0 /home/liuboyuan/workspace/Hi3518_SDK_V1.0.8.0/mpp/lib/libaec.a(kiss_fftr.o)
 .bss           0x00129248        0x0 /home/liuboyuan/workspace/Hi3518_SDK_V1.0.8.0/mpp/lib/libaec.a(math_approx.o)
 .bss           0x00129248        0x0 /home/liuboyuan/workspace/Hi3518_SDK_V1.0.8.0/mpp/lib/libaec.a(kiss_fft.o)
 .bss           0x00129248        0x0 /home/liuboyuan/workspace/Hi3518_SDK_V1.0.8.0/mpp/lib/libaec.a(kf_bfly4_fft.o)
 .bss           0x00129248        0x0 /home/liuboyuan/workspace/Hi3518_SDK_V1.0.8.0/mpp/lib/libaec.a(kf_bfly5_fft.o)
 .bss           0x00129248        0x0 /home/liuboyuan/workspace/Hi3518_SDK_V1.0.8.0/mpp/lib/libresampler.a(resampler_wrap.o)
 .bss           0x00129248        0x0 /home/liuboyuan/workspace/Hi3518_SDK_V1.0.8.0/mpp/lib/libresampler.a(resampler.o)
 .bss           0x00129248        0x0 /home/liuboyuan/workspace/Hi3518_SDK_V1.0.8.0/mpp/lib/libresampler.a(resample_v2.o)
 .bss           0x00129248        0x0 /home/liuboyuan/workspace/Hi3518_SDK_V1.0.8.0/mpp/lib/libresampler.a(linear_src.o)
 .bss           0x00129248        0x0 /home/liuboyuan/workspace/Hi3518_SDK_V1.0.8.0/mpp/lib/libresampler.a(resampler2X.o)
 .bss           0x00129248        0x0 /home/liuboyuan/workspace/Hi3518_SDK_V1.0.8.0/mpp/lib/libresampler.a(resample_rom.o)
 .bss           0x00129248        0x0 /home/liuboyuan/workspace/Hi3518_SDK_V1.0.8.0/mpp/lib/libanr.a(anr_wrap.o)
 .bss           0x00129248        0x0 /home/liuboyuan/workspace/Hi3518_SDK_V1.0.8.0/mpp/lib/libanr.a(anr_preprocess.o)
 .bss           0x00129248        0x0 /home/liuboyuan/workspace/Hi3518_SDK_V1.0.8.0/mpp/lib/libanr.a(anr_basic_gcc.o)
 .bss           0x00129248        0x0 /home/liuboyuan/workspace/Hi3518_SDK_V1.0.8.0/mpp/lib/libanr.a(anr_basic_op.o)
 .bss           0x00129248        0x0 /home/liuboyuan/workspace/Hi3518_SDK_V1.0.8.0/mpp/lib/libanr.a(anr_fftwrap.o)
 .bss           0x00129248        0x0 /home/liuboyuan/workspace/Hi3518_SDK_V1.0.8.0/mpp/lib/libanr.a(anr_filterbank.o)
 .bss           0x00129248        0x0 /home/liuboyuan/workspace/Hi3518_SDK_V1.0.8.0/mpp/lib/libanr.a(anr_kiss_fftr.o)
 .bss           0x00129248        0x0 /home/liuboyuan/workspace/Hi3518_SDK_V1.0.8.0/mpp/lib/libanr.a(anr_math_approx.o)
 .bss           0x00129248        0x0 /home/liuboyuan/workspace/Hi3518_SDK_V1.0.8.0/mpp/lib/libanr.a(anr_kiss_fft.o)
 .bss           0x00129248        0x0 /home/liuboyuan/workspace/Hi3518_SDK_V1.0.8.0/mpp/lib/libanr.a(anr_kf_bfly4_fft.o)
 .bss           0x00129248        0x0 /home/liuboyuan/workspace/Hi3518_SDK_V1.0.8.0/mpp/lib/libanr.a(anr_kf_bfly5_fft.o)
 .bss           0x00129248        0x0 /opt/hisi-linux-nptl/arm-hisiv100-linux/bin/../lib/gcc/arm-hisiv100-linux-uclibcgnueabi/4.4.1/crtend.o
 .bss           0x00129248        0x0 /opt/hisi-linux-nptl/arm-hisiv100-linux/bin/../target/usr/lib/crtn.o
 *(COMMON)
 COMMON         0x00129248     0x2434 ipc_main.o
                0x00129248                gsGuiClient
                0x001294a8                stCfCtlRetUart
                0x001295a8                stCfCtlRetTerminal
                0x001296a8                gsPipeCommand
                0x001296bc                sGetCommand
                0x001296e0                stCfBaseRet
                0x001297e0                gsTerminalClient
                0x00129818                sCmdList
                0x00129858                sFeedbackList
                0x00129898                sReqList
                0x001298d8                sUartReq
                0x001298f4                gsShareMem
                0x00129958                gsParas
                0x0012b558                stCfCtlRetGui
                0x0012b658                glEndFlag
                0x0012b65c                gsPipeFeedback
                0x0012b670                sCTRL_Btn_Req
 COMMON         0x0012b67c       0x30 /home/liuboyuan/workspace/Hi3518_SDK_V1.0.8.0/mpp/3516C_src/base/base_api_ledctl.o
                0x0012b67c                sLedTimer
                0x0012b694                gsLedCtlInfo
 *fill*         0x0012b6ac        0x4 00
 COMMON         0x0012b6b0      0xef0 /home/liuboyuan/workspace/Hi3518_SDK_V1.0.8.0/mpp/3516C_src/base/base_AVMsgManagement.o
                0x0012b6b0                gsOverlayAttr
                0x0012b90c                gsWifiInfo
                0x0012ba14                gsVencAttr
                0x0012ba74                glCommuBuf
                0x0012ba9c                gsVpss
                0x0012baec                gsRegCovAttr
                0x0012bb4c                lTimerId
                0x0012bb58                glPoolId
                0x0012bb5c                gsFileAttr
                0x0012bbc8                gsDIRStat
                0x0012bce0                gIPList
                0x0012bd00                gsSystemAttr
                0x0012bda4                lTimerFlag
                0x0012bda8                gsIrCutInfo
                0x0012bdc8                lCurrentChangeParamsArray
                0x0012be48                glHifbDevFd
                0x0012be4c                gsVi
                0x0012bf14                gsRegCov
                0x0012bf68                gsRtpAttr
                0x0012c008                gsParaRtp
                0x0012c0a8                gsHighThreadArgv
                0x0012c0d4                gsVenc
                0x0012c104                plCurrentChangeParamsArray
                0x0012c108                stCfAudioCtrl
                0x0012c208                gsSDStat
                0x0012c2a0                stCfVencCtrlCh
 COMMON         0x0012c5a0       0x8c /home/liuboyuan/workspace/Hi3518_SDK_V1.0.8.0/mpp/3516C_src/base/base_comm_vi.o
                0x0012c5a0                g_as32ViDev
                0x0012c5a4                g_as32SubChn
                0x0012c5e8                g_as32MaxChn
 COMMON         0x0012c62c        0x4 /home/liuboyuan/workspace/Hi3518_SDK_V1.0.8.0/mpp/3516C_src/base/base_mw_boardinterface.o
                0x0012c62c                geModeFlag
 COMMON         0x0012c630      0x180 /home/liuboyuan/workspace/Hi3518_SDK_V1.0.8.0/mpp/3516C_src/base/base_mw_filesort.o
                0x0012c630                cFileSnapPosition
                0x0012c6b0                cFileVideoPosition
                0x0012c730                cFileSubcardPosition
 COMMON         0x0012c7b0      0xc00 /home/liuboyuan/workspace/Hi3518_SDK_V1.0.8.0/mpp/3516C_src/base/base_mw_osd.o
                0x0012c7b0                ascii_table_16_24_001a
                0x0012c810                ascii_table_16_24_0011
                0x0012c870                ascii_table_16_24_001e
                0x0012c8d0                ascii_table_16_24_0008
                0x0012c930                ascii_table_16_24_0004
                0x0012c990                ascii_table_16_24_0019
                0x0012c9f0                ascii_table_16_24_0015
                0x0012ca50                ascii_table_16_24_000c
                0x0012cab0                ascii_table_16_24_0010
                0x0012cb10                ascii_table_16_24_001d
                0x0012cb70                ascii_table_16_24_0007
                0x0012cbd0                ascii_table_16_24_0003
                0x0012cc30                ascii_table_16_24_0018
                0x0012cc90                ascii_table_16_24_0014
                0x0012ccf0                ascii_table_16_24_000f
                0x0012cd50                ascii_table_16_24_000b
                0x0012cdb0                ascii_table_16_24_001c
                0x0012ce10                ascii_table_16_24_0006
                0x0012ce70                ascii_table_16_24_0002
                0x0012ced0                ascii_table_16_24_0017
                0x0012cf30                ascii_table_16_24_0013
                0x0012cf90                ascii_table_16_24_000e
                0x0012cff0                ascii_table_16_24_000a
                0x0012d050                ascii_table_16_24_001f
                0x0012d0b0                ascii_table_16_24_001b
                0x0012d110                ascii_table_16_24_0005
                0x0012d170                ascii_table_16_24_0009
                0x0012d1d0                ascii_table_16_24_0001
                0x0012d230                ascii_table_16_24_0016
                0x0012d290                ascii_table_16_24_0012
                0x0012d2f0                ascii_table_16_24_0000
                0x0012d350                ascii_table_16_24_000d
 COMMON         0x0012d3b0       0x30 /home/liuboyuan/workspace/Hi3518_SDK_V1.0.8.0/mpp/3516C_src/base/base_mw_snap.o
                0x0012d3b0                gsSnap
 COMMON         0x0012d3e0      0x168 /home/liuboyuan/workspace/Hi3518_SDK_V1.0.8.0/mpp/3516C_src/base/base_mw_subcard.o
                0x0012d3e0                sSubCardInfo
 COMMON         0x0012d548       0x18 /home/liuboyuan/workspace/Hi3518_SDK_V1.0.8.0/mpp/3516C_src/base/base_mw_time.o
                0x0012d548                gsTime
 COMMON         0x0012d560       0x28 /home/liuboyuan/workspace/Hi3518_SDK_V1.0.8.0/mpp/3516C_src/base/base_util_mux_imple_mpegts.o
                0x0012d560                gsMuxInterface
 COMMON         0x0012d588      0x12c /home/liuboyuan/workspace/Hi3518_SDK_V1.0.8.0/mpp/3516C_src/base/base_venc_control.o
                0x0012d588                gs_ViDevBnd_curr
                0x0012d58c                gsDataConsume
                0x0012d6b0                gs_ViChnBnd_curr
 COMMON         0x0012d6b4       0x20 /home/liuboyuan/workspace/Hi3518_SDK_V1.0.8.0/mpp/3516C_src/base/base_venc_dataconsume.o
                0x0012d6b4                sFileSortInfo
 COMMON         0x0012d6d4       0x18 /home/liuboyuan/workspace/Hi3518_SDK_V1.0.8.0/mpp/3516C_src/common/comm_fileSystem.o
                0x0012d6d4                sFileSystem_Mutex
 COMMON         0x0012d6ec        0x4 /home/liuboyuan/workspace/Hi3518_SDK_V1.0.8.0/mpp/3516C_src/common/comm_mw_strpool.o
                0x0012d6ec                eCOMM_MW_StrPoolHeader
 COMMON         0x0012d6f0        0x4 /home/liuboyuan/workspace/Hi3518_SDK_V1.0.8.0/mpp/lib/libmpi.a(mpi_sys.o)
                0x0012d6f0                g_s32HRTimer
 COMMON         0x0012d6f4      0x76a /home/liuboyuan/workspace/Hi3518_SDK_V1.0.8.0/mpp/lib/libisp.a(mpi_isp_entry.o)
                0x0012d6f4                gst_coms_isp_default
                0x0012d778                g_stLock
                0x0012d790                g_stCmosIspShadingTable
                0x0012daac                gstSnsExpFuncs
                0x0012db04                g_stProcMem
                0x0012db10                g_stCmosIspDemosaic
                0x0012db24                g_stCmosIspNoiseTable
                0x0012dc24                g_stCmosIspAgcTable
                0x0012dc5c                g_stCmosIspGammaTable
 *fill*         0x0012de5e        0x2 00
 COMMON         0x0012de60     0x2134 /home/liuboyuan/workspace/Hi3518_SDK_V1.0.8.0/mpp/lib/libisp.a(hisi_isp_debug.o)
                0x0012de60                g_stIspDebug
 COMMON         0x0012ff94     0x3c20 /home/liuboyuan/workspace/Hi3518_SDK_V1.0.8.0/mpp/lib/libisp.a(awb_fw.o)
                0x0012ff94                awb_greenCenBg
                0x0012ff96                awb_greenLumaLowThresh
                0x0012ff98                awb_zone_info
                0x00133b98                awb_greenLumaHighThresh
                0x00133b9a                awb_greenDistCrossCoef
                0x00133b9c                awb_greenDistRgCoef
                0x00133b9e                awb_greenDistBgCoef
                0x00133ba0                awb_greenDistThresh
                0x00133ba2                awb_greenCenRg
                0x00133ba4                awb_p
                0x00133ba8                greenInfo
                0x00133bb4                . = ALIGN ((. != 0x0)?0x4:0x1)
                0x00133bb4                _bss_end__ = .
                0x00133bb4                __bss_end__ = .
                0x00133bb4                . = ALIGN (0x4)
                0x00133bb4                . = ALIGN (0x4)
                0x00133bb4                __end__ = .
                0x00133bb4                _end = .
                0x00133bb4                PROVIDE (end, .)
                0x00133bb4                . = DATA_SEGMENT_END (.)

.stab
 *(.stab)

.stabstr
 *(.stabstr)

.stab.excl
 *(.stab.excl)

.stab.exclstr
 *(.stab.exclstr)

.stab.index
 *(.stab.index)

.stab.indexstr
 *(.stab.indexstr)

.ARM.attributes
                0x00000000       0x29
 .ARM.attributes
                0x00000000       0x1d /opt/hisi-linux-nptl/arm-hisiv100-linux/bin/../target/usr/lib/crt1.o
 .ARM.attributes
                0x0000001d       0x1d /opt/hisi-linux-nptl/arm-hisiv100-linux/bin/../target/usr/lib/crti.o
 .ARM.attributes
                0x0000003a       0x2d /opt/hisi-linux-nptl/arm-hisiv100-linux/bin/../lib/gcc/arm-hisiv100-linux-uclibcgnueabi/4.4.1/crtbegin.o
 .ARM.attributes
                0x00000067       0x2d ipc_main.o
 .ARM.attributes
                0x00000094       0x2d /home/liuboyuan/workspace/Hi3518_SDK_V1.0.8.0/mpp/3516C_src/base/base_rtp.o
 .ARM.attributes
                0x000000c1       0x2d /home/liuboyuan/workspace/Hi3518_SDK_V1.0.8.0/mpp/3516C_src/base/base_api_ledctl.o
 .ARM.attributes
                0x000000ee       0x2d /home/liuboyuan/workspace/Hi3518_SDK_V1.0.8.0/mpp/3516C_src/base/base_AVMsgManagement.o
 .ARM.attributes
                0x0000011b       0x2d /home/liuboyuan/workspace/Hi3518_SDK_V1.0.8.0/mpp/3516C_src/base/base_comm_isp.o
 .ARM.attributes
                0x00000148       0x2d /home/liuboyuan/workspace/Hi3518_SDK_V1.0.8.0/mpp/3516C_src/base/base_comm_sys.o
 .ARM.attributes
                0x00000175       0x2d /home/liuboyuan/workspace/Hi3518_SDK_V1.0.8.0/mpp/3516C_src/base/base_comm_venc.o
 .ARM.attributes
                0x000001a2       0x2d /home/liuboyuan/workspace/Hi3518_SDK_V1.0.8.0/mpp/3516C_src/base/base_comm_vi.o
 .ARM.attributes
                0x000001cf       0x2d /home/liuboyuan/workspace/Hi3518_SDK_V1.0.8.0/mpp/3516C_src/base/base_comm_vpss.o
 .ARM.attributes
                0x000001fc       0x2d /home/liuboyuan/workspace/Hi3518_SDK_V1.0.8.0/mpp/3516C_src/base/base_ircut_ctl.o
 .ARM.attributes
                0x00000229       0x2d /home/liuboyuan/workspace/Hi3518_SDK_V1.0.8.0/mpp/3516C_src/base/base_loadbmp.o
 .ARM.attributes
                0x00000256       0x2d /home/liuboyuan/workspace/Hi3518_SDK_V1.0.8.0/mpp/3516C_src/base/base_mw_boardinterface.o
 .ARM.attributes
                0x00000283       0x2d /home/liuboyuan/workspace/Hi3518_SDK_V1.0.8.0/mpp/3516C_src/base/base_mw_filesort.o
 .ARM.attributes
                0x000002b0       0x2d /home/liuboyuan/workspace/Hi3518_SDK_V1.0.8.0/mpp/3516C_src/base/base_mw_modechange.o
 .ARM.attributes
                0x000002dd       0x2d /home/liuboyuan/workspace/Hi3518_SDK_V1.0.8.0/mpp/3516C_src/base/base_mw_osd.o
 .ARM.attributes
                0x0000030a       0x2d /home/liuboyuan/workspace/Hi3518_SDK_V1.0.8.0/mpp/3516C_src/base/base_mw_overlay.o
 .ARM.attributes
                0x00000337       0x2d /home/liuboyuan/workspace/Hi3518_SDK_V1.0.8.0/mpp/3516C_src/base/base_mw_region.o
 .ARM.attributes
                0x00000364       0x2d /home/liuboyuan/workspace/Hi3518_SDK_V1.0.8.0/mpp/3516C_src/base/base_mw_sd.o
 .ARM.attributes
                0x00000391       0x2d /home/liuboyuan/workspace/Hi3518_SDK_V1.0.8.0/mpp/3516C_src/base/base_mw_snap.o
 .ARM.attributes
                0x000003be       0x2d /home/liuboyuan/workspace/Hi3518_SDK_V1.0.8.0/mpp/3516C_src/base/base_mw_subcard.o
 .ARM.attributes
                0x000003eb       0x2d /home/liuboyuan/workspace/Hi3518_SDK_V1.0.8.0/mpp/3516C_src/base/base_mw_subcard_rec.o
 .ARM.attributes
                0x00000418       0x2d /home/liuboyuan/workspace/Hi3518_SDK_V1.0.8.0/mpp/3516C_src/base/base_mw_time.o
 .ARM.attributes
                0x00000445       0x2d /home/liuboyuan/workspace/Hi3518_SDK_V1.0.8.0/mpp/3516C_src/base/base_mw_wifi.o
 .ARM.attributes
                0x00000472       0x2d /home/liuboyuan/workspace/Hi3518_SDK_V1.0.8.0/mpp/3516C_src/base/base_util_mux_imple_mpegts.o
 .ARM.attributes
                0x0000049f       0x2d /home/liuboyuan/workspace/Hi3518_SDK_V1.0.8.0/mpp/3516C_src/base/base_venc_control.o
 .ARM.attributes
                0x000004cc       0x2d /home/liuboyuan/workspace/Hi3518_SDK_V1.0.8.0/mpp/3516C_src/base/base_venc_dataconsume.o
 .ARM.attributes
                0x000004f9       0x2d /home/liuboyuan/workspace/Hi3518_SDK_V1.0.8.0/mpp/3516C_src/base/base_venc_handle.o
 .ARM.attributes
                0x00000526       0x2d /home/liuboyuan/workspace/Hi3518_SDK_V1.0.8.0/mpp/3516C_src/ctrl/ctrl_api_button.o
 .ARM.attributes
                0x00000553       0x2d /home/liuboyuan/workspace/Hi3518_SDK_V1.0.8.0/mpp/3516C_src/ctrl/ctrl_cmdPreHanle.o
 .ARM.attributes
                0x00000580       0x2d /home/liuboyuan/workspace/Hi3518_SDK_V1.0.8.0/mpp/3516C_src/ctrl/ctrl_guiReq.o
 .ARM.attributes
                0x000005ad       0x2d /home/liuboyuan/workspace/Hi3518_SDK_V1.0.8.0/mpp/3516C_src/ctrl/ctrl_interactiveCtl.o
 .ARM.attributes
                0x000005da       0x2d /home/liuboyuan/workspace/Hi3518_SDK_V1.0.8.0/mpp/3516C_src/ctrl/ctrl_reqResponse.o
 .ARM.attributes
                0x00000607       0x2d /home/liuboyuan/workspace/Hi3518_SDK_V1.0.8.0/mpp/3516C_src/ctrl/ctrl_terminalReq.o
 .ARM.attributes
                0x00000634       0x2d /home/liuboyuan/workspace/Hi3518_SDK_V1.0.8.0/mpp/3516C_src/ctrl/ctrl_uart_getCommand.o
 .ARM.attributes
                0x00000661       0x2d /home/liuboyuan/workspace/Hi3518_SDK_V1.0.8.0/mpp/3516C_src/ctrl/ctrl_uartReq.o
 .ARM.attributes
                0x0000068e       0x2d /home/liuboyuan/workspace/Hi3518_SDK_V1.0.8.0/mpp/3516C_src/ctrl/ctrl_uartReq_parseCommand.o
 .ARM.attributes
                0x000006bb       0x2d /home/liuboyuan/workspace/Hi3518_SDK_V1.0.8.0/mpp/3516C_src/ctrl/CTRL_UARTREQ_PARSECOMMAND_Common.o
 .ARM.attributes
                0x000006e8       0x2d /home/liuboyuan/workspace/Hi3518_SDK_V1.0.8.0/mpp/3516C_src/ctrl/CTRL_UARTREQ_PARSECOMMAND_EMPTY.o
 .ARM.attributes
                0x00000715       0x2d /home/liuboyuan/workspace/Hi3518_SDK_V1.0.8.0/mpp/3516C_src/ctrl/CTRL_UARTREQ_PARSECOMMAND_INTER.o
 .ARM.attributes
                0x00000742       0x2d /home/liuboyuan/workspace/Hi3518_SDK_V1.0.8.0/mpp/3516C_src/ctrl/CTRL_UARTREQ_PARSECOMMAND_LED.o
 .ARM.attributes
                0x0000076f       0x2d /home/liuboyuan/workspace/Hi3518_SDK_V1.0.8.0/mpp/3516C_src/ctrl/CTRL_UARTREQ_PARSECOMMAND_QUIT.o
 .ARM.attributes
                0x0000079c       0x2d /home/liuboyuan/workspace/Hi3518_SDK_V1.0.8.0/mpp/3516C_src/ctrl/CTRL_UARTREQ_PARSECOMMAND_SNAP.o
 .ARM.attributes
                0x000007c9       0x2d /home/liuboyuan/workspace/Hi3518_SDK_V1.0.8.0/mpp/3516C_src/ctrl/CTRL_UARTREQ_PARSECOMMAND_TIME.o
 .ARM.attributes
                0x000007f6       0x2d /home/liuboyuan/workspace/Hi3518_SDK_V1.0.8.0/mpp/3516C_src/ctrl/CTRL_UARTREQ_PARSECOMMAND_WIFI.o
 .ARM.attributes
                0x00000823       0x2d /home/liuboyuan/workspace/Hi3518_SDK_V1.0.8.0/mpp/3516C_src/ctrl/ctrl_uartReq_saveReq.o
 .ARM.attributes
                0x00000850       0x2d /home/liuboyuan/workspace/Hi3518_SDK_V1.0.8.0/mpp/3516C_src/common/comm_command.o
 .ARM.attributes
                0x0000087d       0x2d /home/liuboyuan/workspace/Hi3518_SDK_V1.0.8.0/mpp/3516C_src/common/comm_conditionFlag.o
 .ARM.attributes
                0x000008aa       0x2d /home/liuboyuan/workspace/Hi3518_SDK_V1.0.8.0/mpp/3516C_src/common/comm_dd_adc.o
 .ARM.attributes
                0x000008d7       0x2d /home/liuboyuan/workspace/Hi3518_SDK_V1.0.8.0/mpp/3516C_src/common/comm_dd_button.o
 .ARM.attributes
                0x00000904       0x2d /home/liuboyuan/workspace/Hi3518_SDK_V1.0.8.0/mpp/3516C_src/common/comm_dd_ircut.o
 .ARM.attributes
                0x00000931       0x2d /home/liuboyuan/workspace/Hi3518_SDK_V1.0.8.0/mpp/3516C_src/common/comm_dd_uart.o
 .ARM.attributes
                0x0000095e       0x2d /home/liuboyuan/workspace/Hi3518_SDK_V1.0.8.0/mpp/3516C_src/common/comm_debug.o
 .ARM.attributes
                0x0000098b       0x2d /home/liuboyuan/workspace/Hi3518_SDK_V1.0.8.0/mpp/3516C_src/common/comm_fileSort.o
 .ARM.attributes
                0x000009b8       0x2d /home/liuboyuan/workspace/Hi3518_SDK_V1.0.8.0/mpp/3516C_src/common/comm_fileSystem.o
 .ARM.attributes
                0x000009e5       0x2d /home/liuboyuan/workspace/Hi3518_SDK_V1.0.8.0/mpp/3516C_src/common/comm_iplist.o
 .ARM.attributes
                0x00000a12       0x2d /home/liuboyuan/workspace/Hi3518_SDK_V1.0.8.0/mpp/3516C_src/common/comm_list.o
 .ARM.attributes
                0x00000a3f       0x2d /home/liuboyuan/workspace/Hi3518_SDK_V1.0.8.0/mpp/3516C_src/common/comm_mw_led.o
 .ARM.attributes
                0x00000a6c       0x2d /home/liuboyuan/workspace/Hi3518_SDK_V1.0.8.0/mpp/3516C_src/common/comm_mw_strpool.o
 .ARM.attributes
                0x00000a99       0x2d /home/liuboyuan/workspace/Hi3518_SDK_V1.0.8.0/mpp/3516C_src/common/comm_mw_time.o
 .ARM.attributes
                0x00000ac6       0x2d /home/liuboyuan/workspace/Hi3518_SDK_V1.0.8.0/mpp/3516C_src/common/comm_mw_vfile.o
 .ARM.attributes
                0x00000af3       0x2d /home/liuboyuan/workspace/Hi3518_SDK_V1.0.8.0/mpp/3516C_src/common/comm_net.o
 .ARM.attributes
                0x00000b20       0x2d /home/liuboyuan/workspace/Hi3518_SDK_V1.0.8.0/mpp/3516C_src/common/comm_parameters.o
 .ARM.attributes
                0x00000b4d       0x2d /home/liuboyuan/workspace/Hi3518_SDK_V1.0.8.0/mpp/3516C_src/common/comm_pipe.o
 .ARM.attributes
                0x00000b7a       0x2d /home/liuboyuan/workspace/Hi3518_SDK_V1.0.8.0/mpp/3516C_src/common/comm_pool.o
 .ARM.attributes
                0x00000ba7       0x2d /home/liuboyuan/workspace/Hi3518_SDK_V1.0.8.0/mpp/3516C_src/common/comm_pool_payload.o
 .ARM.attributes
                0x00000bd4       0x2d /home/liuboyuan/workspace/Hi3518_SDK_V1.0.8.0/mpp/3516C_src/common/comm_queue.o
 .ARM.attributes
                0x00000c01       0x2d /home/liuboyuan/workspace/Hi3518_SDK_V1.0.8.0/mpp/3516C_src/common/comm_sharemem.o
 .ARM.attributes
                0x00000c2e       0x2d /home/liuboyuan/workspace/Hi3518_SDK_V1.0.8.0/mpp/3516C_src/common/comm_spaceSafer.o
 .ARM.attributes
                0x00000c5b       0x2d /home/liuboyuan/workspace/Hi3518_SDK_V1.0.8.0/mpp/3516C_src/common/comm_stream.o
 .ARM.attributes
                0x00000c88       0x2d /home/liuboyuan/workspace/Hi3518_SDK_V1.0.8.0/mpp/3516C_src/common/comm_string.o
 .ARM.attributes
                0x00000cb5       0x2d /home/liuboyuan/workspace/Hi3518_SDK_V1.0.8.0/mpp/3516C_src/common/comm_timer.o
 .ARM.attributes
                0x00000ce2       0x2d /home/liuboyuan/workspace/Hi3518_SDK_V1.0.8.0/mpp/3516C_src/common/comm_util.o
 .ARM.attributes
                0x00000d0f       0x2d /home/liuboyuan/workspace/Hi3518_SDK_V1.0.8.0/mpp/lib/libmpi.a(mpi_region.o)
 .ARM.attributes
                0x00000d3c       0x2d /home/liuboyuan/workspace/Hi3518_SDK_V1.0.8.0/mpp/lib/libmpi.a(mpi_sys.o)
 .ARM.attributes
                0x00000d69       0x2d /home/liuboyuan/workspace/Hi3518_SDK_V1.0.8.0/mpp/lib/libmpi.a(mpi_vb.o)
 .ARM.attributes
                0x00000d96       0x2d /home/liuboyuan/workspace/Hi3518_SDK_V1.0.8.0/mpp/lib/libmpi.a(mpi_venc.o)
 .ARM.attributes
                0x00000dc3       0x2d /home/liuboyuan/workspace/Hi3518_SDK_V1.0.8.0/mpp/lib/libmpi.a(mpi_vi.o)
 .ARM.attributes
                0x00000df0       0x2d /home/liuboyuan/workspace/Hi3518_SDK_V1.0.8.0/mpp/lib/libmpi.a(mpi_vpss.o)
 .ARM.attributes
                0x00000e1d       0x2d /home/liuboyuan/workspace/Hi3518_SDK_V1.0.8.0/mpp/lib/libmpi.a(sys_bind.o)
 .ARM.attributes
                0x00000e4a       0x2d /home/liuboyuan/workspace/Hi3518_SDK_V1.0.8.0/mpp/lib/libmpi.a(mpi_adec.o)
 .ARM.attributes
                0x00000e77       0x2d /home/liuboyuan/workspace/Hi3518_SDK_V1.0.8.0/mpp/lib/libmpi.a(mpi_aenc.o)
 .ARM.attributes
                0x00000ea4       0x2d /home/liuboyuan/workspace/Hi3518_SDK_V1.0.8.0/mpp/lib/libmpi.a(mpi_ai.o)
 .ARM.attributes
                0x00000ed1       0x2d /home/liuboyuan/workspace/Hi3518_SDK_V1.0.8.0/mpp/lib/libmpi.a(mpi_ao.o)
 .ARM.attributes
                0x00000efe       0x2d /home/liuboyuan/workspace/Hi3518_SDK_V1.0.8.0/mpp/lib/libmpi.a(audio_comm.o)
 .ARM.attributes
                0x00000f2b       0x2d /home/liuboyuan/workspace/Hi3518_SDK_V1.0.8.0/mpp/lib/libmpi.a(audio_voice_adp.o)
 .ARM.attributes
                0x00000f58       0x2d /home/liuboyuan/workspace/Hi3518_SDK_V1.0.8.0/mpp/lib/libisp.a(mpi_isp.o)
 .ARM.attributes
                0x00000f85       0x2d /home/liuboyuan/workspace/Hi3518_SDK_V1.0.8.0/mpp/lib/libisp.a(mpi_isp_entry.o)
 .ARM.attributes
                0x00000fb2       0x2d /home/liuboyuan/workspace/Hi3518_SDK_V1.0.8.0/mpp/lib/libisp.a(apical_color_management.o)
 .ARM.attributes
                0x00000fdf       0x2d /home/liuboyuan/workspace/Hi3518_SDK_V1.0.8.0/mpp/lib/libisp.a(apical_isp_defaults.o)
 .ARM.attributes
                0x0000100c       0x2d /home/liuboyuan/workspace/Hi3518_SDK_V1.0.8.0/mpp/lib/libisp.a(apical_isp_system_control.o)
 .ARM.attributes
                0x00001039       0x2d /home/liuboyuan/workspace/Hi3518_SDK_V1.0.8.0/mpp/lib/libisp.a(apical_noise_reduction.o)
 .ARM.attributes
                0x00001066       0x2d /home/liuboyuan/workspace/Hi3518_SDK_V1.0.8.0/mpp/lib/libisp.a(apical_sharpening.o)
 .ARM.attributes
                0x00001093       0x2d /home/liuboyuan/workspace/Hi3518_SDK_V1.0.8.0/mpp/lib/libisp.a(hi_regwr.o)
 .ARM.attributes
                0x000010c0       0x2d /home/liuboyuan/workspace/Hi3518_SDK_V1.0.8.0/mpp/lib/libisp.a(hisi_isp_debug.o)
 .ARM.attributes
                0x000010ed       0x2d /home/liuboyuan/workspace/Hi3518_SDK_V1.0.8.0/mpp/lib/libisp.a(hisi_isp_proc.o)
 .ARM.attributes
                0x0000111a       0x2d /home/liuboyuan/workspace/Hi3518_SDK_V1.0.8.0/mpp/lib/libisp.a(math_utils.o)
 .ARM.attributes
                0x00001147       0x2d /home/liuboyuan/workspace/Hi3518_SDK_V1.0.8.0/mpp/lib/libisp.a(apical_auto_wb.o)
 .ARM.attributes
                0x00001174       0x2d /home/liuboyuan/workspace/Hi3518_SDK_V1.0.8.0/mpp/lib/libisp.a(apical_isp.o)
 .ARM.attributes
                0x000011a1       0x2d /home/liuboyuan/workspace/Hi3518_SDK_V1.0.8.0/mpp/lib/libisp.a(apical_new_antifog.o)
 .ARM.attributes
                0x000011ce       0x2d /home/liuboyuan/workspace/Hi3518_SDK_V1.0.8.0/mpp/lib/libisp.a(apical_pixel_calibration.o)
 .ARM.attributes
                0x000011fb       0x2d /home/liuboyuan/workspace/Hi3518_SDK_V1.0.8.0/mpp/lib/libisp.a(apical_pregamma.o)
 .ARM.attributes
                0x00001228       0x2d /home/liuboyuan/workspace/Hi3518_SDK_V1.0.8.0/mpp/lib/libisp.a(awb_fw.o)
 .ARM.attributes
                0x00001255       0x2d /home/liuboyuan/workspace/Hi3518_SDK_V1.0.8.0/mpp/lib/libisp.a(Apical_antifog.o)
 .ARM.attributes
                0x00001282       0x2d /home/liuboyuan/workspace/Hi3518_SDK_V1.0.8.0/mpp/lib/libisp.a(apical_auto_exposure.o)
 .ARM.attributes
                0x000012af       0x2d /home/liuboyuan/workspace/Hi3518_SDK_V1.0.8.0/mpp/lib/libisp.a(apical_exposure_cmos.o)
 .ARM.attributes
                0x000012dc       0x2d /home/liuboyuan/workspace/Hi3518_SDK_V1.0.8.0/mpp/lib/libisp.a(apical_gamma_init.o)
 .ARM.attributes
                0x00001309       0x2d /home/liuboyuan/workspace/Hi3518_SDK_V1.0.8.0/mpp/lib/libisp.a(apical_iridix_control.o)
 .ARM.attributes
                0x00001336       0x2d /home/liuboyuan/workspace/Hi3518_SDK_V1.0.8.0/mpp/lib/libisp.a(apical_iris_control.o)
 .ARM.attributes
                0x00001363       0x2d /home/liuboyuan/workspace/Hi3518_SDK_V1.0.8.0/mpp/lib/libsns_imx122.a(imx122_cmos.o)
 .ARM.attributes
                0x00001390       0x2d /home/liuboyuan/workspace/Hi3518_SDK_V1.0.8.0/mpp/lib/libsns_imx122.a(imx122_sensor_ctl.o)
 .ARM.attributes
                0x000013bd       0x2d /home/liuboyuan/workspace/Hi3518_SDK_V1.0.8.0/mpp/lib/libVoiceEngine.a(voice.o)
 .ARM.attributes
                0x000013ea       0x2d /home/liuboyuan/workspace/Hi3518_SDK_V1.0.8.0/mpp/lib/libVoiceEngine.a(adpcm.o)
 .ARM.attributes
                0x00001417       0x1d /home/liuboyuan/workspace/Hi3518_SDK_V1.0.8.0/mpp/lib/libVoiceEngine.a(encode72616k.o)
 .ARM.attributes
                0x00001434       0x2d /home/liuboyuan/workspace/Hi3518_SDK_V1.0.8.0/mpp/lib/libVoiceEngine.a(g711func.o)
 .ARM.attributes
                0x00001461       0x2d /home/liuboyuan/workspace/Hi3518_SDK_V1.0.8.0/mpp/lib/libVoiceEngine.a(g726_optimize.o)
 .ARM.attributes
                0x0000148e       0x2d /home/liuboyuan/workspace/Hi3518_SDK_V1.0.8.0/mpp/lib/libVoiceEngine.a(g726_sub.o)
 .ARM.attributes
                0x000014bb       0x1d /home/liuboyuan/workspace/Hi3518_SDK_V1.0.8.0/mpp/lib/libVoiceEngine.a(encode726.o)
 .ARM.attributes
                0x000014d8       0x2d /home/liuboyuan/workspace/Hi3518_SDK_V1.0.8.0/mpp/lib/libaec.a(echowrap.o)
 .ARM.attributes
                0x00001505       0x2d /home/liuboyuan/workspace/Hi3518_SDK_V1.0.8.0/mpp/lib/libaec.a(mdf.o)
 .ARM.attributes
                0x00001532       0x2d /home/liuboyuan/workspace/Hi3518_SDK_V1.0.8.0/mpp/lib/libaec.a(preprocess.o)
 .ARM.attributes
                0x0000155f       0x2d /home/liuboyuan/workspace/Hi3518_SDK_V1.0.8.0/mpp/lib/libaec.a(aec_rom.o)
 .ARM.attributes
                0x0000158c       0x1d /home/liuboyuan/workspace/Hi3518_SDK_V1.0.8.0/mpp/lib/libaec.a(basic_gcc.o)
 .ARM.attributes
                0x000015a9       0x2d /home/liuboyuan/workspace/Hi3518_SDK_V1.0.8.0/mpp/lib/libaec.a(basic_op.o)
 .ARM.attributes
                0x000015d6       0x2d /home/liuboyuan/workspace/Hi3518_SDK_V1.0.8.0/mpp/lib/libaec.a(fftwrap.o)
 .ARM.attributes
                0x00001603       0x2d /home/liuboyuan/workspace/Hi3518_SDK_V1.0.8.0/mpp/lib/libaec.a(filterbank.o)
 .ARM.attributes
                0x00001630       0x2d /home/liuboyuan/workspace/Hi3518_SDK_V1.0.8.0/mpp/lib/libaec.a(kiss_fftr.o)
 .ARM.attributes
                0x0000165d       0x2d /home/liuboyuan/workspace/Hi3518_SDK_V1.0.8.0/mpp/lib/libaec.a(math_approx.o)
 .ARM.attributes
                0x0000168a       0x2d /home/liuboyuan/workspace/Hi3518_SDK_V1.0.8.0/mpp/lib/libaec.a(kiss_fft.o)
 .ARM.attributes
                0x000016b7       0x1d /home/liuboyuan/workspace/Hi3518_SDK_V1.0.8.0/mpp/lib/libaec.a(kf_bfly4_fft.o)
 .ARM.attributes
                0x000016d4       0x1d /home/liuboyuan/workspace/Hi3518_SDK_V1.0.8.0/mpp/lib/libaec.a(kf_bfly5_fft.o)
 .ARM.attributes
                0x000016f1       0x2d /home/liuboyuan/workspace/Hi3518_SDK_V1.0.8.0/mpp/lib/libresampler.a(resampler_wrap.o)
 .ARM.attributes
                0x0000171e       0x2d /home/liuboyuan/workspace/Hi3518_SDK_V1.0.8.0/mpp/lib/libresampler.a(resampler.o)
 .ARM.attributes
                0x0000174b       0x2d /home/liuboyuan/workspace/Hi3518_SDK_V1.0.8.0/mpp/lib/libresampler.a(resample_v2.o)
 .ARM.attributes
                0x00001778       0x2d /home/liuboyuan/workspace/Hi3518_SDK_V1.0.8.0/mpp/lib/libresampler.a(linear_src.o)
 .ARM.attributes
                0x000017a5       0x2d /home/liuboyuan/workspace/Hi3518_SDK_V1.0.8.0/mpp/lib/libresampler.a(resampler2X.o)
 .ARM.attributes
                0x000017d2       0x2d /home/liuboyuan/workspace/Hi3518_SDK_V1.0.8.0/mpp/lib/libresampler.a(resample_rom.o)
 .ARM.attributes
                0x000017ff       0x2d /home/liuboyuan/workspace/Hi3518_SDK_V1.0.8.0/mpp/lib/libanr.a(anr_wrap.o)
 .ARM.attributes
                0x0000182c       0x2d /home/liuboyuan/workspace/Hi3518_SDK_V1.0.8.0/mpp/lib/libanr.a(anr_preprocess.o)
 .ARM.attributes
                0x00001859       0x1d /home/liuboyuan/workspace/Hi3518_SDK_V1.0.8.0/mpp/lib/libanr.a(anr_basic_gcc.o)
 .ARM.attributes
                0x00001876       0x2d /home/liuboyuan/workspace/Hi3518_SDK_V1.0.8.0/mpp/lib/libanr.a(anr_basic_op.o)
 .ARM.attributes
                0x000018a3       0x2d /home/liuboyuan/workspace/Hi3518_SDK_V1.0.8.0/mpp/lib/libanr.a(anr_fftwrap.o)
 .ARM.attributes
                0x000018d0       0x2d /home/liuboyuan/workspace/Hi3518_SDK_V1.0.8.0/mpp/lib/libanr.a(anr_filterbank.o)
 .ARM.attributes
                0x000018fd       0x2d /home/liuboyuan/workspace/Hi3518_SDK_V1.0.8.0/mpp/lib/libanr.a(anr_kiss_fftr.o)
 .ARM.attributes
                0x0000192a       0x2d /home/liuboyuan/workspace/Hi3518_SDK_V1.0.8.0/mpp/lib/libanr.a(anr_math_approx.o)
 .ARM.attributes
                0x00001957       0x2d /home/liuboyuan/workspace/Hi3518_SDK_V1.0.8.0/mpp/lib/libanr.a(anr_kiss_fft.o)
 .ARM.attributes
                0x00001984       0x1d /home/liuboyuan/workspace/Hi3518_SDK_V1.0.8.0/mpp/lib/libanr.a(anr_kf_bfly4_fft.o)
 .ARM.attributes
                0x000019a1       0x1d /home/liuboyuan/workspace/Hi3518_SDK_V1.0.8.0/mpp/lib/libanr.a(anr_kf_bfly5_fft.o)
 .ARM.attributes
                0x000019be       0x2d /opt/hisi-linux-nptl/arm-hisiv100-linux/bin/../lib/gcc/arm-hisiv100-linux-uclibcgnueabi/4.4.1/crtend.o
 .ARM.attributes
                0x000019eb       0x1d /opt/hisi-linux-nptl/arm-hisiv100-linux/bin/../target/usr/lib/crtn.o

.comment        0x00000000     0x29ad
 *(.comment)
 .comment       0x00000000       0x2f /opt/hisi-linux-nptl/arm-hisiv100-linux/bin/../target/usr/lib/crti.o
 .comment       0x0000002f       0x4b /opt/hisi-linux-nptl/arm-hisiv100-linux/bin/../lib/gcc/arm-hisiv100-linux-uclibcgnueabi/4.4.1/crtbegin.o
 .comment       0x0000007a       0x4b ipc_main.o
 .comment       0x000000c5       0x4b /home/liuboyuan/workspace/Hi3518_SDK_V1.0.8.0/mpp/3516C_src/base/base_rtp.o
 .comment       0x00000110       0x4b /home/liuboyuan/workspace/Hi3518_SDK_V1.0.8.0/mpp/3516C_src/base/base_api_ledctl.o
 .comment       0x0000015b       0x4b /home/liuboyuan/workspace/Hi3518_SDK_V1.0.8.0/mpp/3516C_src/base/base_AVMsgManagement.o
 .comment       0x000001a6       0x4b /home/liuboyuan/workspace/Hi3518_SDK_V1.0.8.0/mpp/3516C_src/base/base_comm_isp.o
 .comment       0x000001f1       0x4b /home/liuboyuan/workspace/Hi3518_SDK_V1.0.8.0/mpp/3516C_src/base/base_comm_sys.o
 .comment       0x0000023c       0x4b /home/liuboyuan/workspace/Hi3518_SDK_V1.0.8.0/mpp/3516C_src/base/base_comm_venc.o
 .comment       0x00000287       0x4b /home/liuboyuan/workspace/Hi3518_SDK_V1.0.8.0/mpp/3516C_src/base/base_comm_vi.o
 .comment       0x000002d2       0x4b /home/liuboyuan/workspace/Hi3518_SDK_V1.0.8.0/mpp/3516C_src/base/base_comm_vpss.o
 .comment       0x0000031d       0x4b /home/liuboyuan/workspace/Hi3518_SDK_V1.0.8.0/mpp/3516C_src/base/base_ircut_ctl.o
 .comment       0x00000368       0x4b /home/liuboyuan/workspace/Hi3518_SDK_V1.0.8.0/mpp/3516C_src/base/base_loadbmp.o
 .comment       0x000003b3       0x4b /home/liuboyuan/workspace/Hi3518_SDK_V1.0.8.0/mpp/3516C_src/base/base_mw_boardinterface.o
 .comment       0x000003fe       0x4b /home/liuboyuan/workspace/Hi3518_SDK_V1.0.8.0/mpp/3516C_src/base/base_mw_filesort.o
 .comment       0x00000449       0x4b /home/liuboyuan/workspace/Hi3518_SDK_V1.0.8.0/mpp/3516C_src/base/base_mw_modechange.o
 .comment       0x00000494       0x4b /home/liuboyuan/workspace/Hi3518_SDK_V1.0.8.0/mpp/3516C_src/base/base_mw_osd.o
 .comment       0x000004df       0x4b /home/liuboyuan/workspace/Hi3518_SDK_V1.0.8.0/mpp/3516C_src/base/base_mw_overlay.o
 .comment       0x0000052a       0x4b /home/liuboyuan/workspace/Hi3518_SDK_V1.0.8.0/mpp/3516C_src/base/base_mw_region.o
 .comment       0x00000575       0x4b /home/liuboyuan/workspace/Hi3518_SDK_V1.0.8.0/mpp/3516C_src/base/base_mw_sd.o
 .comment       0x000005c0       0x4b /home/liuboyuan/workspace/Hi3518_SDK_V1.0.8.0/mpp/3516C_src/base/base_mw_snap.o
 .comment       0x0000060b       0x4b /home/liuboyuan/workspace/Hi3518_SDK_V1.0.8.0/mpp/3516C_src/base/base_mw_subcard.o
 .comment       0x00000656       0x4b /home/liuboyuan/workspace/Hi3518_SDK_V1.0.8.0/mpp/3516C_src/base/base_mw_subcard_rec.o
 .comment       0x000006a1       0x4b /home/liuboyuan/workspace/Hi3518_SDK_V1.0.8.0/mpp/3516C_src/base/base_mw_time.o
 .comment       0x000006ec       0x4b /home/liuboyuan/workspace/Hi3518_SDK_V1.0.8.0/mpp/3516C_src/base/base_mw_wifi.o
 .comment       0x00000737       0x4b /home/liuboyuan/workspace/Hi3518_SDK_V1.0.8.0/mpp/3516C_src/base/base_util_mux_imple_mpegts.o
 .comment       0x00000782       0x4b /home/liuboyuan/workspace/Hi3518_SDK_V1.0.8.0/mpp/3516C_src/base/base_venc_control.o
 .comment       0x000007cd       0x4b /home/liuboyuan/workspace/Hi3518_SDK_V1.0.8.0/mpp/3516C_src/base/base_venc_dataconsume.o
 .comment       0x00000818       0x4b /home/liuboyuan/workspace/Hi3518_SDK_V1.0.8.0/mpp/3516C_src/base/base_venc_handle.o
 .comment       0x00000863       0x4b /home/liuboyuan/workspace/Hi3518_SDK_V1.0.8.0/mpp/3516C_src/ctrl/ctrl_api_button.o
 .comment       0x000008ae       0x4b /home/liuboyuan/workspace/Hi3518_SDK_V1.0.8.0/mpp/3516C_src/ctrl/ctrl_cmdPreHanle.o
 .comment       0x000008f9       0x4b /home/liuboyuan/workspace/Hi3518_SDK_V1.0.8.0/mpp/3516C_src/ctrl/ctrl_guiReq.o
 .comment       0x00000944       0x4b /home/liuboyuan/workspace/Hi3518_SDK_V1.0.8.0/mpp/3516C_src/ctrl/ctrl_interactiveCtl.o
 .comment       0x0000098f       0x4b /home/liuboyuan/workspace/Hi3518_SDK_V1.0.8.0/mpp/3516C_src/ctrl/ctrl_reqResponse.o
 .comment       0x000009da       0x4b /home/liuboyuan/workspace/Hi3518_SDK_V1.0.8.0/mpp/3516C_src/ctrl/ctrl_terminalReq.o
 .comment       0x00000a25       0x4b /home/liuboyuan/workspace/Hi3518_SDK_V1.0.8.0/mpp/3516C_src/ctrl/ctrl_uart_getCommand.o
 .comment       0x00000a70       0x4b /home/liuboyuan/workspace/Hi3518_SDK_V1.0.8.0/mpp/3516C_src/ctrl/ctrl_uartReq.o
 .comment       0x00000abb       0x4b /home/liuboyuan/workspace/Hi3518_SDK_V1.0.8.0/mpp/3516C_src/ctrl/ctrl_uartReq_parseCommand.o
 .comment       0x00000b06       0x4b /home/liuboyuan/workspace/Hi3518_SDK_V1.0.8.0/mpp/3516C_src/ctrl/CTRL_UARTREQ_PARSECOMMAND_Common.o
 .comment       0x00000b51       0x4b /home/liuboyuan/workspace/Hi3518_SDK_V1.0.8.0/mpp/3516C_src/ctrl/CTRL_UARTREQ_PARSECOMMAND_EMPTY.o
 .comment       0x00000b9c       0x4b /home/liuboyuan/workspace/Hi3518_SDK_V1.0.8.0/mpp/3516C_src/ctrl/CTRL_UARTREQ_PARSECOMMAND_INTER.o
 .comment       0x00000be7       0x4b /home/liuboyuan/workspace/Hi3518_SDK_V1.0.8.0/mpp/3516C_src/ctrl/CTRL_UARTREQ_PARSECOMMAND_LED.o
 .comment       0x00000c32       0x4b /home/liuboyuan/workspace/Hi3518_SDK_V1.0.8.0/mpp/3516C_src/ctrl/CTRL_UARTREQ_PARSECOMMAND_QUIT.o
 .comment       0x00000c7d       0x4b /home/liuboyuan/workspace/Hi3518_SDK_V1.0.8.0/mpp/3516C_src/ctrl/CTRL_UARTREQ_PARSECOMMAND_SNAP.o
 .comment       0x00000cc8       0x4b /home/liuboyuan/workspace/Hi3518_SDK_V1.0.8.0/mpp/3516C_src/ctrl/CTRL_UARTREQ_PARSECOMMAND_TIME.o
 .comment       0x00000d13       0x4b /home/liuboyuan/workspace/Hi3518_SDK_V1.0.8.0/mpp/3516C_src/ctrl/CTRL_UARTREQ_PARSECOMMAND_WIFI.o
 .comment       0x00000d5e       0x4b /home/liuboyuan/workspace/Hi3518_SDK_V1.0.8.0/mpp/3516C_src/ctrl/ctrl_uartReq_saveReq.o
 .comment       0x00000da9       0x4b /home/liuboyuan/workspace/Hi3518_SDK_V1.0.8.0/mpp/3516C_src/common/comm_command.o
 .comment       0x00000df4       0x4b /home/liuboyuan/workspace/Hi3518_SDK_V1.0.8.0/mpp/3516C_src/common/comm_conditionFlag.o
 .comment       0x00000e3f       0x4b /home/liuboyuan/workspace/Hi3518_SDK_V1.0.8.0/mpp/3516C_src/common/comm_dd_adc.o
 .comment       0x00000e8a       0x4b /home/liuboyuan/workspace/Hi3518_SDK_V1.0.8.0/mpp/3516C_src/common/comm_dd_button.o
 .comment       0x00000ed5       0x4b /home/liuboyuan/workspace/Hi3518_SDK_V1.0.8.0/mpp/3516C_src/common/comm_dd_ircut.o
 .comment       0x00000f20       0x4b /home/liuboyuan/workspace/Hi3518_SDK_V1.0.8.0/mpp/3516C_src/common/comm_dd_uart.o
 .comment       0x00000f6b       0x4b /home/liuboyuan/workspace/Hi3518_SDK_V1.0.8.0/mpp/3516C_src/common/comm_debug.o
 .comment       0x00000fb6       0x4b /home/liuboyuan/workspace/Hi3518_SDK_V1.0.8.0/mpp/3516C_src/common/comm_fileSort.o
 .comment       0x00001001       0x4b /home/liuboyuan/workspace/Hi3518_SDK_V1.0.8.0/mpp/3516C_src/common/comm_fileSystem.o
 .comment       0x0000104c       0x4b /home/liuboyuan/workspace/Hi3518_SDK_V1.0.8.0/mpp/3516C_src/common/comm_iplist.o
 .comment       0x00001097       0x4b /home/liuboyuan/workspace/Hi3518_SDK_V1.0.8.0/mpp/3516C_src/common/comm_list.o
 .comment       0x000010e2       0x4b /home/liuboyuan/workspace/Hi3518_SDK_V1.0.8.0/mpp/3516C_src/common/comm_mw_led.o
 .comment       0x0000112d       0x4b /home/liuboyuan/workspace/Hi3518_SDK_V1.0.8.0/mpp/3516C_src/common/comm_mw_strpool.o
 .comment       0x00001178       0x4b /home/liuboyuan/workspace/Hi3518_SDK_V1.0.8.0/mpp/3516C_src/common/comm_mw_time.o
 .comment       0x000011c3       0x4b /home/liuboyuan/workspace/Hi3518_SDK_V1.0.8.0/mpp/3516C_src/common/comm_mw_vfile.o
 .comment       0x0000120e       0x4b /home/liuboyuan/workspace/Hi3518_SDK_V1.0.8.0/mpp/3516C_src/common/comm_net.o
 .comment       0x00001259       0x4b /home/liuboyuan/workspace/Hi3518_SDK_V1.0.8.0/mpp/3516C_src/common/comm_parameters.o
 .comment       0x000012a4       0x4b /home/liuboyuan/workspace/Hi3518_SDK_V1.0.8.0/mpp/3516C_src/common/comm_pipe.o
 .comment       0x000012ef       0x4b /home/liuboyuan/workspace/Hi3518_SDK_V1.0.8.0/mpp/3516C_src/common/comm_pool.o
 .comment       0x0000133a       0x4b /home/liuboyuan/workspace/Hi3518_SDK_V1.0.8.0/mpp/3516C_src/common/comm_pool_payload.o
 .comment       0x00001385       0x4b /home/liuboyuan/workspace/Hi3518_SDK_V1.0.8.0/mpp/3516C_src/common/comm_queue.o
 .comment       0x000013d0       0x4b /home/liuboyuan/workspace/Hi3518_SDK_V1.0.8.0/mpp/3516C_src/common/comm_sharemem.o
 .comment       0x0000141b       0x4b /home/liuboyuan/workspace/Hi3518_SDK_V1.0.8.0/mpp/3516C_src/common/comm_spaceSafer.o
 .comment       0x00001466       0x4b /home/liuboyuan/workspace/Hi3518_SDK_V1.0.8.0/mpp/3516C_src/common/comm_stream.o
 .comment       0x000014b1       0x4b /home/liuboyuan/workspace/Hi3518_SDK_V1.0.8.0/mpp/3516C_src/common/comm_string.o
 .comment       0x000014fc       0x4b /home/liuboyuan/workspace/Hi3518_SDK_V1.0.8.0/mpp/3516C_src/common/comm_timer.o
 .comment       0x00001547       0x4b /home/liuboyuan/workspace/Hi3518_SDK_V1.0.8.0/mpp/3516C_src/common/comm_util.o
 .comment       0x00001592       0x4b /home/liuboyuan/workspace/Hi3518_SDK_V1.0.8.0/mpp/lib/libmpi.a(mpi_region.o)
 .comment       0x000015dd       0x4b /home/liuboyuan/workspace/Hi3518_SDK_V1.0.8.0/mpp/lib/libmpi.a(mpi_sys.o)
 .comment       0x00001628       0x4b /home/liuboyuan/workspace/Hi3518_SDK_V1.0.8.0/mpp/lib/libmpi.a(mpi_vb.o)
 .comment       0x00001673       0x4b /home/liuboyuan/workspace/Hi3518_SDK_V1.0.8.0/mpp/lib/libmpi.a(mpi_venc.o)
 .comment       0x000016be       0x4b /home/liuboyuan/workspace/Hi3518_SDK_V1.0.8.0/mpp/lib/libmpi.a(mpi_vi.o)
 .comment       0x00001709       0x4b /home/liuboyuan/workspace/Hi3518_SDK_V1.0.8.0/mpp/lib/libmpi.a(mpi_vpss.o)
 .comment       0x00001754       0x4b /home/liuboyuan/workspace/Hi3518_SDK_V1.0.8.0/mpp/lib/libmpi.a(sys_bind.o)
 .comment       0x0000179f       0x4b /home/liuboyuan/workspace/Hi3518_SDK_V1.0.8.0/mpp/lib/libmpi.a(mpi_adec.o)
 .comment       0x000017ea       0x4b /home/liuboyuan/workspace/Hi3518_SDK_V1.0.8.0/mpp/lib/libmpi.a(mpi_aenc.o)
 .comment       0x00001835       0x4b /home/liuboyuan/workspace/Hi3518_SDK_V1.0.8.0/mpp/lib/libmpi.a(mpi_ai.o)
 .comment       0x00001880       0x4b /home/liuboyuan/workspace/Hi3518_SDK_V1.0.8.0/mpp/lib/libmpi.a(mpi_ao.o)
 .comment       0x000018cb       0x4b /home/liuboyuan/workspace/Hi3518_SDK_V1.0.8.0/mpp/lib/libmpi.a(audio_comm.o)
 .comment       0x00001916       0x4b /home/liuboyuan/workspace/Hi3518_SDK_V1.0.8.0/mpp/lib/libmpi.a(audio_voice_adp.o)
 .comment       0x00001961       0x4b /home/liuboyuan/workspace/Hi3518_SDK_V1.0.8.0/mpp/lib/libisp.a(mpi_isp.o)
 .comment       0x000019ac       0x4b /home/liuboyuan/workspace/Hi3518_SDK_V1.0.8.0/mpp/lib/libisp.a(mpi_isp_entry.o)
 .comment       0x000019f7       0x4b /home/liuboyuan/workspace/Hi3518_SDK_V1.0.8.0/mpp/lib/libisp.a(apical_color_management.o)
 .comment       0x00001a42       0x4b /home/liuboyuan/workspace/Hi3518_SDK_V1.0.8.0/mpp/lib/libisp.a(apical_isp_defaults.o)
 .comment       0x00001a8d       0x4b /home/liuboyuan/workspace/Hi3518_SDK_V1.0.8.0/mpp/lib/libisp.a(apical_isp_system_control.o)
 .comment       0x00001ad8       0x4b /home/liuboyuan/workspace/Hi3518_SDK_V1.0.8.0/mpp/lib/libisp.a(apical_noise_reduction.o)
 .comment       0x00001b23       0x4b /home/liuboyuan/workspace/Hi3518_SDK_V1.0.8.0/mpp/lib/libisp.a(apical_sharpening.o)
 .comment       0x00001b6e       0x4b /home/liuboyuan/workspace/Hi3518_SDK_V1.0.8.0/mpp/lib/libisp.a(hi_regwr.o)
 .comment       0x00001bb9       0x4b /home/liuboyuan/workspace/Hi3518_SDK_V1.0.8.0/mpp/lib/libisp.a(hisi_isp_debug.o)
 .comment       0x00001c04       0x4b /home/liuboyuan/workspace/Hi3518_SDK_V1.0.8.0/mpp/lib/libisp.a(hisi_isp_proc.o)
 .comment       0x00001c4f       0x4b /home/liuboyuan/workspace/Hi3518_SDK_V1.0.8.0/mpp/lib/libisp.a(math_utils.o)
 .comment       0x00001c9a       0x4b /home/liuboyuan/workspace/Hi3518_SDK_V1.0.8.0/mpp/lib/libisp.a(apical_auto_wb.o)
 .comment       0x00001ce5       0x4b /home/liuboyuan/workspace/Hi3518_SDK_V1.0.8.0/mpp/lib/libisp.a(apical_isp.o)
 .comment       0x00001d30       0x4b /home/liuboyuan/workspace/Hi3518_SDK_V1.0.8.0/mpp/lib/libisp.a(apical_new_antifog.o)
 .comment       0x00001d7b       0x4b /home/liuboyuan/workspace/Hi3518_SDK_V1.0.8.0/mpp/lib/libisp.a(apical_pixel_calibration.o)
 .comment       0x00001dc6       0x4b /home/liuboyuan/workspace/Hi3518_SDK_V1.0.8.0/mpp/lib/libisp.a(apical_pregamma.o)
 .comment       0x00001e11       0x4b /home/liuboyuan/workspace/Hi3518_SDK_V1.0.8.0/mpp/lib/libisp.a(awb_fw.o)
 .comment       0x00001e5c       0x4b /home/liuboyuan/workspace/Hi3518_SDK_V1.0.8.0/mpp/lib/libisp.a(Apical_antifog.o)
 .comment       0x00001ea7       0x4b /home/liuboyuan/workspace/Hi3518_SDK_V1.0.8.0/mpp/lib/libisp.a(apical_auto_exposure.o)
 .comment       0x00001ef2       0x4b /home/liuboyuan/workspace/Hi3518_SDK_V1.0.8.0/mpp/lib/libisp.a(apical_exposure_cmos.o)
 .comment       0x00001f3d       0x4b /home/liuboyuan/workspace/Hi3518_SDK_V1.0.8.0/mpp/lib/libisp.a(apical_gamma_init.o)
 .comment       0x00001f88       0x4b /home/liuboyuan/workspace/Hi3518_SDK_V1.0.8.0/mpp/lib/libisp.a(apical_iridix_control.o)
 .comment       0x00001fd3       0x4b /home/liuboyuan/workspace/Hi3518_SDK_V1.0.8.0/mpp/lib/libisp.a(apical_iris_control.o)
 .comment       0x0000201e       0x4b /home/liuboyuan/workspace/Hi3518_SDK_V1.0.8.0/mpp/lib/libsns_imx122.a(imx122_cmos.o)
 .comment       0x00002069       0x4b /home/liuboyuan/workspace/Hi3518_SDK_V1.0.8.0/mpp/lib/libsns_imx122.a(imx122_sensor_ctl.o)
 .comment       0x000020b4       0x4b /home/liuboyuan/workspace/Hi3518_SDK_V1.0.8.0/mpp/lib/libVoiceEngine.a(voice.o)
 .comment       0x000020ff       0x4b /home/liuboyuan/workspace/Hi3518_SDK_V1.0.8.0/mpp/lib/libVoiceEngine.a(adpcm.o)
 .comment       0x0000214a       0x4b /home/liuboyuan/workspace/Hi3518_SDK_V1.0.8.0/mpp/lib/libVoiceEngine.a(g711func.o)
 .comment       0x00002195       0x4b /home/liuboyuan/workspace/Hi3518_SDK_V1.0.8.0/mpp/lib/libVoiceEngine.a(g726_optimize.o)
 .comment       0x000021e0       0x4b /home/liuboyuan/workspace/Hi3518_SDK_V1.0.8.0/mpp/lib/libVoiceEngine.a(g726_sub.o)
 .comment       0x0000222b       0x4b /home/liuboyuan/workspace/Hi3518_SDK_V1.0.8.0/mpp/lib/libaec.a(echowrap.o)
 .comment       0x00002276       0x4b /home/liuboyuan/workspace/Hi3518_SDK_V1.0.8.0/mpp/lib/libaec.a(mdf.o)
 .comment       0x000022c1       0x4b /home/liuboyuan/workspace/Hi3518_SDK_V1.0.8.0/mpp/lib/libaec.a(preprocess.o)
 .comment       0x0000230c       0x4b /home/liuboyuan/workspace/Hi3518_SDK_V1.0.8.0/mpp/lib/libaec.a(aec_rom.o)
 .comment       0x00002357       0x4b /home/liuboyuan/workspace/Hi3518_SDK_V1.0.8.0/mpp/lib/libaec.a(basic_op.o)
 .comment       0x000023a2       0x4b /home/liuboyuan/workspace/Hi3518_SDK_V1.0.8.0/mpp/lib/libaec.a(fftwrap.o)
 .comment       0x000023ed       0x4b /home/liuboyuan/workspace/Hi3518_SDK_V1.0.8.0/mpp/lib/libaec.a(filterbank.o)
 .comment       0x00002438       0x4b /home/liuboyuan/workspace/Hi3518_SDK_V1.0.8.0/mpp/lib/libaec.a(kiss_fftr.o)
 .comment       0x00002483       0x4b /home/liuboyuan/workspace/Hi3518_SDK_V1.0.8.0/mpp/lib/libaec.a(math_approx.o)
 .comment       0x000024ce       0x4b /home/liuboyuan/workspace/Hi3518_SDK_V1.0.8.0/mpp/lib/libaec.a(kiss_fft.o)
 .comment       0x00002519       0x4b /home/liuboyuan/workspace/Hi3518_SDK_V1.0.8.0/mpp/lib/libresampler.a(resampler_wrap.o)
 .comment       0x00002564       0x4b /home/liuboyuan/workspace/Hi3518_SDK_V1.0.8.0/mpp/lib/libresampler.a(resampler.o)
 .comment       0x000025af       0x4b /home/liuboyuan/workspace/Hi3518_SDK_V1.0.8.0/mpp/lib/libresampler.a(resample_v2.o)
 .comment       0x000025fa       0x4b /home/liuboyuan/workspace/Hi3518_SDK_V1.0.8.0/mpp/lib/libresampler.a(linear_src.o)
 .comment       0x00002645       0x4b /home/liuboyuan/workspace/Hi3518_SDK_V1.0.8.0/mpp/lib/libresampler.a(resampler2X.o)
 .comment       0x00002690       0x4b /home/liuboyuan/workspace/Hi3518_SDK_V1.0.8.0/mpp/lib/libresampler.a(resample_rom.o)
 .comment       0x000026db       0x4b /home/liuboyuan/workspace/Hi3518_SDK_V1.0.8.0/mpp/lib/libanr.a(anr_wrap.o)
 .comment       0x00002726       0x4b /home/liuboyuan/workspace/Hi3518_SDK_V1.0.8.0/mpp/lib/libanr.a(anr_preprocess.o)
 .comment       0x00002771       0x4b /home/liuboyuan/workspace/Hi3518_SDK_V1.0.8.0/mpp/lib/libanr.a(anr_basic_op.o)
 .comment       0x000027bc       0x4b /home/liuboyuan/workspace/Hi3518_SDK_V1.0.8.0/mpp/lib/libanr.a(anr_fftwrap.o)
 .comment       0x00002807       0x4b /home/liuboyuan/workspace/Hi3518_SDK_V1.0.8.0/mpp/lib/libanr.a(anr_filterbank.o)
 .comment       0x00002852       0x4b /home/liuboyuan/workspace/Hi3518_SDK_V1.0.8.0/mpp/lib/libanr.a(anr_kiss_fftr.o)
 .comment       0x0000289d       0x4b /home/liuboyuan/workspace/Hi3518_SDK_V1.0.8.0/mpp/lib/libanr.a(anr_math_approx.o)
 .comment       0x000028e8       0x4b /home/liuboyuan/workspace/Hi3518_SDK_V1.0.8.0/mpp/lib/libanr.a(anr_kiss_fft.o)
 .comment       0x00002933       0x4b /opt/hisi-linux-nptl/arm-hisiv100-linux/bin/../lib/gcc/arm-hisiv100-linux-uclibcgnueabi/4.4.1/crtend.o
 .comment       0x0000297e       0x2f /opt/hisi-linux-nptl/arm-hisiv100-linux/bin/../target/usr/lib/crtn.o

.debug
 *(.debug)

.line
 *(.line)

.debug_srcinfo
 *(.debug_srcinfo)

.debug_sfnames
 *(.debug_sfnames)

.debug_aranges
 *(.debug_aranges)

.debug_pubnames
 *(.debug_pubnames)

.debug_info
 *(.debug_info .gnu.linkonce.wi.*)

.debug_abbrev
 *(.debug_abbrev)

.debug_line
 *(.debug_line)

.debug_frame
 *(.debug_frame)

.debug_str
 *(.debug_str)

.debug_loc
 *(.debug_loc)

.debug_macinfo
 *(.debug_macinfo)

.debug_weaknames
 *(.debug_weaknames)

.debug_funcnames
 *(.debug_funcnames)

.debug_typenames
 *(.debug_typenames)

.debug_varnames
 *(.debug_varnames)

.debug_pubtypes
 *(.debug_pubtypes)

.debug_ranges
 *(.debug_ranges)

.gnu.attributes
 *(.gnu.attributes)

.note.gnu.arm.ident
 *(.note.gnu.arm.ident)

/DISCARD/
 *(.note.GNU-stack)
 *(.gnu_debuglink)
OUTPUT(ipc_main elf32-littlearm)
